Archive member included to satisfy reference by file (symbol)

/usr/lib/gcc/arm-none-eabi/9.2.1/thumb/v6-m/nofp/libgcc.a(_dvmd_tls.o)
                              CMakeFiles/HandGest.dir/home/anonxx/pico/pico-sdk/src/rp2_common/pico_divider/divider.S.obj (__aeabi_idiv0)
/usr/lib/gcc/arm-none-eabi/9.2.1/../../../arm-none-eabi/lib/thumb/v6-m/nofp/libg.a(lib_a-atexit.o)
                              /usr/lib/gcc/arm-none-eabi/9.2.1/../../../arm-none-eabi/lib/thumb/v6-m/nofp/crt0.o (atexit)
/usr/lib/gcc/arm-none-eabi/9.2.1/../../../arm-none-eabi/lib/thumb/v6-m/nofp/libg.a(lib_a-calloc.o)
                              CMakeFiles/HandGest.dir/home/anonxx/pico/pico-sdk/src/rp2_common/pico_malloc/pico_malloc.c.obj (calloc)
/usr/lib/gcc/arm-none-eabi/9.2.1/../../../arm-none-eabi/lib/thumb/v6-m/nofp/libg.a(lib_a-callocr.o)
                              /usr/lib/gcc/arm-none-eabi/9.2.1/../../../arm-none-eabi/lib/thumb/v6-m/nofp/libg.a(lib_a-calloc.o) (_calloc_r)
/usr/lib/gcc/arm-none-eabi/9.2.1/../../../arm-none-eabi/lib/thumb/v6-m/nofp/libg.a(lib_a-ctype_.o)
                              CMakeFiles/HandGest.dir/home/anonxx/pico/pico-sdk/lib/tinyusb/src/tusb.c.obj (_ctype_)
/usr/lib/gcc/arm-none-eabi/9.2.1/../../../arm-none-eabi/lib/thumb/v6-m/nofp/libg.a(lib_a-fini.o)
                              /usr/lib/gcc/arm-none-eabi/9.2.1/../../../arm-none-eabi/lib/thumb/v6-m/nofp/crt0.o (__libc_fini_array)
/usr/lib/gcc/arm-none-eabi/9.2.1/../../../arm-none-eabi/lib/thumb/v6-m/nofp/libg.a(lib_a-impure.o)
                              /usr/lib/gcc/arm-none-eabi/9.2.1/../../../arm-none-eabi/lib/thumb/v6-m/nofp/libg.a(lib_a-calloc.o) (_impure_ptr)
/usr/lib/gcc/arm-none-eabi/9.2.1/../../../arm-none-eabi/lib/thumb/v6-m/nofp/libg.a(lib_a-init.o)
                              /usr/lib/gcc/arm-none-eabi/9.2.1/../../../arm-none-eabi/lib/thumb/v6-m/nofp/crt0.o (__libc_init_array)
/usr/lib/gcc/arm-none-eabi/9.2.1/../../../arm-none-eabi/lib/thumb/v6-m/nofp/libg.a(lib_a-malloc.o)
                              CMakeFiles/HandGest.dir/home/anonxx/pico/pico-sdk/src/rp2_common/pico_malloc/pico_malloc.c.obj (malloc)
/usr/lib/gcc/arm-none-eabi/9.2.1/../../../arm-none-eabi/lib/thumb/v6-m/nofp/libg.a(lib_a-mallocr.o)
                              /usr/lib/gcc/arm-none-eabi/9.2.1/../../../arm-none-eabi/lib/thumb/v6-m/nofp/libg.a(lib_a-callocr.o) (_malloc_r)
/usr/lib/gcc/arm-none-eabi/9.2.1/../../../arm-none-eabi/lib/thumb/v6-m/nofp/libg.a(lib_a-mlock.o)
                              /usr/lib/gcc/arm-none-eabi/9.2.1/../../../arm-none-eabi/lib/thumb/v6-m/nofp/libg.a(lib_a-mallocr.o) (__malloc_lock)
/usr/lib/gcc/arm-none-eabi/9.2.1/../../../arm-none-eabi/lib/thumb/v6-m/nofp/libg.a(lib_a-sbrkr.o)
                              /usr/lib/gcc/arm-none-eabi/9.2.1/../../../arm-none-eabi/lib/thumb/v6-m/nofp/libg.a(lib_a-mallocr.o) (_sbrk_r)
/usr/lib/gcc/arm-none-eabi/9.2.1/../../../arm-none-eabi/lib/thumb/v6-m/nofp/libg.a(lib_a-strlen-stub.o)
                              CMakeFiles/HandGest.dir/home/anonxx/pico/pico-sdk/src/rp2_common/pico_stdio/stdio.c.obj (strlen)
/usr/lib/gcc/arm-none-eabi/9.2.1/../../../arm-none-eabi/lib/thumb/v6-m/nofp/libg.a(lib_a-__atexit.o)
                              /usr/lib/gcc/arm-none-eabi/9.2.1/../../../arm-none-eabi/lib/thumb/v6-m/nofp/libg.a(lib_a-atexit.o) (__register_exitproc)
/usr/lib/gcc/arm-none-eabi/9.2.1/../../../arm-none-eabi/lib/thumb/v6-m/nofp/libg.a(lib_a-freer.o)
                              /usr/lib/gcc/arm-none-eabi/9.2.1/../../../arm-none-eabi/lib/thumb/v6-m/nofp/libg.a(lib_a-malloc.o) (_free_r)
/usr/lib/gcc/arm-none-eabi/9.2.1/../../../arm-none-eabi/lib/thumb/v6-m/nofp/libg.a(lib_a-reent.o)
                              /usr/lib/gcc/arm-none-eabi/9.2.1/../../../arm-none-eabi/lib/thumb/v6-m/nofp/libg.a(lib_a-sbrkr.o) (errno)

Allocating common symbols
Common symbol       size              file

sf_table            0x100             CMakeFiles/HandGest.dir/home/anonxx/pico/pico-sdk/src/rp2_common/pico_float/float_init_rom.c.obj
errno               0x4               /usr/lib/gcc/arm-none-eabi/9.2.1/../../../arm-none-eabi/lib/thumb/v6-m/nofp/libg.a(lib_a-reent.o)
_usbd_qdef_buf      0xc0              CMakeFiles/HandGest.dir/home/anonxx/pico/pico-sdk/lib/tinyusb/src/device/usbd.c.obj
sf_clz_func         0x4               CMakeFiles/HandGest.dir/home/anonxx/pico/pico-sdk/src/rp2_common/pico_float/float_init_rom.c.obj
sd_table            0x100             CMakeFiles/HandGest.dir/home/anonxx/pico/pico-sdk/src/rp2_common/pico_double/double_init_rom.c.obj
uart_char_to_line_feed
                    0x4               CMakeFiles/HandGest.dir/home/anonxx/pico/pico-sdk/src/rp2_common/hardware_uart/uart.c.obj

Discarded input sections

 .text          0x0000000000000000        0x0 /usr/lib/gcc/arm-none-eabi/9.2.1/thumb/v6-m/nofp/crti.o
 .data          0x0000000000000000        0x0 /usr/lib/gcc/arm-none-eabi/9.2.1/thumb/v6-m/nofp/crti.o
 .bss           0x0000000000000000        0x0 /usr/lib/gcc/arm-none-eabi/9.2.1/thumb/v6-m/nofp/crti.o
 .data          0x0000000000000000        0x4 /usr/lib/gcc/arm-none-eabi/9.2.1/thumb/v6-m/nofp/crtbegin.o
 .fini_array    0x0000000000000000        0x4 /usr/lib/gcc/arm-none-eabi/9.2.1/thumb/v6-m/nofp/crtbegin.o
 .text          0x0000000000000000       0x74 /usr/lib/gcc/arm-none-eabi/9.2.1/../../../arm-none-eabi/lib/thumb/v6-m/nofp/crt0.o
 .data          0x0000000000000000        0x0 /usr/lib/gcc/arm-none-eabi/9.2.1/../../../arm-none-eabi/lib/thumb/v6-m/nofp/crt0.o
 .bss           0x0000000000000000        0x0 /usr/lib/gcc/arm-none-eabi/9.2.1/../../../arm-none-eabi/lib/thumb/v6-m/nofp/crt0.o
 .ARM.extab     0x0000000000000000        0x0 /usr/lib/gcc/arm-none-eabi/9.2.1/../../../arm-none-eabi/lib/thumb/v6-m/nofp/crt0.o
 .ARM.exidx     0x0000000000000000       0x10 /usr/lib/gcc/arm-none-eabi/9.2.1/../../../arm-none-eabi/lib/thumb/v6-m/nofp/crt0.o
 .debug_line    0x0000000000000000       0x8c /usr/lib/gcc/arm-none-eabi/9.2.1/../../../arm-none-eabi/lib/thumb/v6-m/nofp/crt0.o
 .debug_info    0x0000000000000000       0x26 /usr/lib/gcc/arm-none-eabi/9.2.1/../../../arm-none-eabi/lib/thumb/v6-m/nofp/crt0.o
 .debug_abbrev  0x0000000000000000       0x14 /usr/lib/gcc/arm-none-eabi/9.2.1/../../../arm-none-eabi/lib/thumb/v6-m/nofp/crt0.o
 .debug_aranges
                0x0000000000000000       0x20 /usr/lib/gcc/arm-none-eabi/9.2.1/../../../arm-none-eabi/lib/thumb/v6-m/nofp/crt0.o
 .debug_str     0x0000000000000000       0x94 /usr/lib/gcc/arm-none-eabi/9.2.1/../../../arm-none-eabi/lib/thumb/v6-m/nofp/crt0.o
 .ARM.attributes
                0x0000000000000000       0x1b /usr/lib/gcc/arm-none-eabi/9.2.1/../../../arm-none-eabi/lib/thumb/v6-m/nofp/crt0.o
 .text          0x0000000000000000        0x0 CMakeFiles/HandGest.dir/HandGest.c.obj
 .data          0x0000000000000000        0x0 CMakeFiles/HandGest.dir/HandGest.c.obj
 .bss           0x0000000000000000        0x0 CMakeFiles/HandGest.dir/HandGest.c.obj
 .text          0x0000000000000000        0x0 CMakeFiles/HandGest.dir/home/anonxx/pico/pico-sdk/src/rp2_common/pico_stdlib/stdlib.c.obj
 .data          0x0000000000000000        0x0 CMakeFiles/HandGest.dir/home/anonxx/pico/pico-sdk/src/rp2_common/pico_stdlib/stdlib.c.obj
 .bss           0x0000000000000000        0x0 CMakeFiles/HandGest.dir/home/anonxx/pico/pico-sdk/src/rp2_common/pico_stdlib/stdlib.c.obj
 .text.set_sys_clock_48mhz
                0x0000000000000000       0x40 CMakeFiles/HandGest.dir/home/anonxx/pico/pico-sdk/src/rp2_common/pico_stdlib/stdlib.c.obj
 .text.set_sys_clock_pll
                0x0000000000000000       0x78 CMakeFiles/HandGest.dir/home/anonxx/pico/pico-sdk/src/rp2_common/pico_stdlib/stdlib.c.obj
 .text.check_sys_clock_khz
                0x0000000000000000       0xb0 CMakeFiles/HandGest.dir/home/anonxx/pico/pico-sdk/src/rp2_common/pico_stdlib/stdlib.c.obj
 .text.setup_default_uart
                0x0000000000000000        0x8 CMakeFiles/HandGest.dir/home/anonxx/pico/pico-sdk/src/rp2_common/pico_stdlib/stdlib.c.obj
 .debug_info    0x0000000000000000      0x510 CMakeFiles/HandGest.dir/home/anonxx/pico/pico-sdk/src/rp2_common/pico_stdlib/stdlib.c.obj
 .debug_abbrev  0x0000000000000000      0x1b3 CMakeFiles/HandGest.dir/home/anonxx/pico/pico-sdk/src/rp2_common/pico_stdlib/stdlib.c.obj
 .debug_loc     0x0000000000000000      0x2d7 CMakeFiles/HandGest.dir/home/anonxx/pico/pico-sdk/src/rp2_common/pico_stdlib/stdlib.c.obj
 .debug_aranges
                0x0000000000000000       0x38 CMakeFiles/HandGest.dir/home/anonxx/pico/pico-sdk/src/rp2_common/pico_stdlib/stdlib.c.obj
 .debug_ranges  0x0000000000000000       0x98 CMakeFiles/HandGest.dir/home/anonxx/pico/pico-sdk/src/rp2_common/pico_stdlib/stdlib.c.obj
 .debug_line    0x0000000000000000      0x560 CMakeFiles/HandGest.dir/home/anonxx/pico/pico-sdk/src/rp2_common/pico_stdlib/stdlib.c.obj
 .debug_str     0x0000000000000000      0x3e0 CMakeFiles/HandGest.dir/home/anonxx/pico/pico-sdk/src/rp2_common/pico_stdlib/stdlib.c.obj
 .comment       0x0000000000000000       0x5a CMakeFiles/HandGest.dir/home/anonxx/pico/pico-sdk/src/rp2_common/pico_stdlib/stdlib.c.obj
 .debug_frame   0x0000000000000000       0x90 CMakeFiles/HandGest.dir/home/anonxx/pico/pico-sdk/src/rp2_common/pico_stdlib/stdlib.c.obj
 .ARM.attributes
                0x0000000000000000       0x2c CMakeFiles/HandGest.dir/home/anonxx/pico/pico-sdk/src/rp2_common/pico_stdlib/stdlib.c.obj
 .text          0x0000000000000000        0x0 CMakeFiles/HandGest.dir/home/anonxx/pico/pico-sdk/src/rp2_common/hardware_gpio/gpio.c.obj
 .data          0x0000000000000000        0x0 CMakeFiles/HandGest.dir/home/anonxx/pico/pico-sdk/src/rp2_common/hardware_gpio/gpio.c.obj
 .bss           0x0000000000000000        0x0 CMakeFiles/HandGest.dir/home/anonxx/pico/pico-sdk/src/rp2_common/hardware_gpio/gpio.c.obj
 .text.gpio_get_pad
                0x0000000000000000       0x28 CMakeFiles/HandGest.dir/home/anonxx/pico/pico-sdk/src/rp2_common/hardware_gpio/gpio.c.obj
 .text.gpio_get_function
                0x0000000000000000       0x14 CMakeFiles/HandGest.dir/home/anonxx/pico/pico-sdk/src/rp2_common/hardware_gpio/gpio.c.obj
 .text.gpio_set_pulls
                0x0000000000000000       0x34 CMakeFiles/HandGest.dir/home/anonxx/pico/pico-sdk/src/rp2_common/hardware_gpio/gpio.c.obj
 .text.gpio_set_inover
                0x0000000000000000       0x24 CMakeFiles/HandGest.dir/home/anonxx/pico/pico-sdk/src/rp2_common/hardware_gpio/gpio.c.obj
 .text.gpio_set_outover
                0x0000000000000000       0x24 CMakeFiles/HandGest.dir/home/anonxx/pico/pico-sdk/src/rp2_common/hardware_gpio/gpio.c.obj
 .text.gpio_set_oeover
                0x0000000000000000       0x24 CMakeFiles/HandGest.dir/home/anonxx/pico/pico-sdk/src/rp2_common/hardware_gpio/gpio.c.obj
 .text.gpio_acknowledge_irq
                0x0000000000000000       0x18 CMakeFiles/HandGest.dir/home/anonxx/pico/pico-sdk/src/rp2_common/hardware_gpio/gpio.c.obj
 .text._gpio_set_irq_enabled
                0x0000000000000000       0x34 CMakeFiles/HandGest.dir/home/anonxx/pico/pico-sdk/src/rp2_common/hardware_gpio/gpio.c.obj
 .text.gpio_set_irq_enabled
                0x0000000000000000       0x20 CMakeFiles/HandGest.dir/home/anonxx/pico/pico-sdk/src/rp2_common/hardware_gpio/gpio.c.obj
 .text.gpio_set_irq_enabled_with_callback
                0x0000000000000000       0x30 CMakeFiles/HandGest.dir/home/anonxx/pico/pico-sdk/src/rp2_common/hardware_gpio/gpio.c.obj
 .text.gpio_set_dormant_irq_enabled
                0x0000000000000000       0x10 CMakeFiles/HandGest.dir/home/anonxx/pico/pico-sdk/src/rp2_common/hardware_gpio/gpio.c.obj
 .text.gpio_irq_handler
                0x0000000000000000       0x68 CMakeFiles/HandGest.dir/home/anonxx/pico/pico-sdk/src/rp2_common/hardware_gpio/gpio.c.obj
 .text.gpio_set_input_enabled
                0x0000000000000000       0x30 CMakeFiles/HandGest.dir/home/anonxx/pico/pico-sdk/src/rp2_common/hardware_gpio/gpio.c.obj
 .text.gpio_init
                0x0000000000000000       0x16 CMakeFiles/HandGest.dir/home/anonxx/pico/pico-sdk/src/rp2_common/hardware_gpio/gpio.c.obj
 .text.gpio_init_mask
                0x0000000000000000       0x1e CMakeFiles/HandGest.dir/home/anonxx/pico/pico-sdk/src/rp2_common/hardware_gpio/gpio.c.obj
 .text.gpio_debug_pins_init
                0x0000000000000000       0x20 CMakeFiles/HandGest.dir/home/anonxx/pico/pico-sdk/src/rp2_common/hardware_gpio/gpio.c.obj
 .rodata.str1.4
                0x0000000000000000        0x6 CMakeFiles/HandGest.dir/home/anonxx/pico/pico-sdk/src/rp2_common/hardware_gpio/gpio.c.obj
 .binary_info.__bi_ptr144
                0x0000000000000000        0x4 CMakeFiles/HandGest.dir/home/anonxx/pico/pico-sdk/src/rp2_common/hardware_gpio/gpio.c.obj
 .bss._callbacks
                0x0000000000000000        0x8 CMakeFiles/HandGest.dir/home/anonxx/pico/pico-sdk/src/rp2_common/hardware_gpio/gpio.c.obj
 .rodata.__bi_144.4730
                0x0000000000000000        0xc CMakeFiles/HandGest.dir/home/anonxx/pico/pico-sdk/src/rp2_common/hardware_gpio/gpio.c.obj
 .text          0x0000000000000000        0x0 CMakeFiles/HandGest.dir/home/anonxx/pico/pico-sdk/src/rp2_common/hardware_claim/claim.c.obj
 .data          0x0000000000000000        0x0 CMakeFiles/HandGest.dir/home/anonxx/pico/pico-sdk/src/rp2_common/hardware_claim/claim.c.obj
 .bss           0x0000000000000000        0x0 CMakeFiles/HandGest.dir/home/anonxx/pico/pico-sdk/src/rp2_common/hardware_claim/claim.c.obj
 .text.hw_is_claimed
                0x0000000000000000       0x34 CMakeFiles/HandGest.dir/home/anonxx/pico/pico-sdk/src/rp2_common/hardware_claim/claim.c.obj
 .rodata.hw_claim_clear.str1.4
                0x0000000000000000       0x75 CMakeFiles/HandGest.dir/home/anonxx/pico/pico-sdk/src/rp2_common/hardware_claim/claim.c.obj
 .text.hw_claim_clear
                0x0000000000000000       0x44 CMakeFiles/HandGest.dir/home/anonxx/pico/pico-sdk/src/rp2_common/hardware_claim/claim.c.obj
 .rodata.__func__.4415
                0x0000000000000000        0xf CMakeFiles/HandGest.dir/home/anonxx/pico/pico-sdk/src/rp2_common/hardware_claim/claim.c.obj
 .text          0x0000000000000000        0x0 CMakeFiles/HandGest.dir/home/anonxx/pico/pico-sdk/src/rp2_common/hardware_sync/sync.c.obj
 .data          0x0000000000000000        0x0 CMakeFiles/HandGest.dir/home/anonxx/pico/pico-sdk/src/rp2_common/hardware_sync/sync.c.obj
 .bss           0x0000000000000000        0x0 CMakeFiles/HandGest.dir/home/anonxx/pico/pico-sdk/src/rp2_common/hardware_sync/sync.c.obj
 .rodata.spin_lock_init.str1.4
                0x0000000000000000       0x5b CMakeFiles/HandGest.dir/home/anonxx/pico/pico-sdk/src/rp2_common/hardware_sync/sync.c.obj
 .text.spin_lock_init
                0x0000000000000000       0x34 CMakeFiles/HandGest.dir/home/anonxx/pico/pico-sdk/src/rp2_common/hardware_sync/sync.c.obj
 .rodata.spin_lock_claim.str1.4
                0x0000000000000000       0x1f CMakeFiles/HandGest.dir/home/anonxx/pico/pico-sdk/src/rp2_common/hardware_sync/sync.c.obj
 .text.spin_lock_claim
                0x0000000000000000       0x18 CMakeFiles/HandGest.dir/home/anonxx/pico/pico-sdk/src/rp2_common/hardware_sync/sync.c.obj
 .text.spin_lock_claim_mask
                0x0000000000000000       0x1e CMakeFiles/HandGest.dir/home/anonxx/pico/pico-sdk/src/rp2_common/hardware_sync/sync.c.obj
 .text.spin_lock_unclaim
                0x0000000000000000       0x10 CMakeFiles/HandGest.dir/home/anonxx/pico/pico-sdk/src/rp2_common/hardware_sync/sync.c.obj
 .rodata.__func__.4396
                0x0000000000000000        0xf CMakeFiles/HandGest.dir/home/anonxx/pico/pico-sdk/src/rp2_common/hardware_sync/sync.c.obj
 .text          0x0000000000000000        0x0 CMakeFiles/HandGest.dir/home/anonxx/pico/pico-sdk/src/rp2_common/pico_platform/platform.c.obj
 .data          0x0000000000000000        0x0 CMakeFiles/HandGest.dir/home/anonxx/pico/pico-sdk/src/rp2_common/pico_platform/platform.c.obj
 .bss           0x0000000000000000        0x0 CMakeFiles/HandGest.dir/home/anonxx/pico/pico-sdk/src/rp2_common/pico_platform/platform.c.obj
 .rodata.rp2040_chip_version.str1.4
                0x0000000000000000       0x79 CMakeFiles/HandGest.dir/home/anonxx/pico/pico-sdk/src/rp2_common/pico_platform/platform.c.obj
 .text.rp2040_chip_version
                0x0000000000000000       0x4c CMakeFiles/HandGest.dir/home/anonxx/pico/pico-sdk/src/rp2_common/pico_platform/platform.c.obj
 .rodata.__func__.4290
                0x0000000000000000       0x14 CMakeFiles/HandGest.dir/home/anonxx/pico/pico-sdk/src/rp2_common/pico_platform/platform.c.obj
 .text          0x0000000000000000        0x0 CMakeFiles/HandGest.dir/home/anonxx/pico/pico-sdk/src/rp2_common/hardware_uart/uart.c.obj
 .data          0x0000000000000000        0x0 CMakeFiles/HandGest.dir/home/anonxx/pico/pico-sdk/src/rp2_common/hardware_uart/uart.c.obj
 .bss           0x0000000000000000        0x0 CMakeFiles/HandGest.dir/home/anonxx/pico/pico-sdk/src/rp2_common/hardware_uart/uart.c.obj
 .text.uart_deinit
                0x0000000000000000       0x20 CMakeFiles/HandGest.dir/home/anonxx/pico/pico-sdk/src/rp2_common/hardware_uart/uart.c.obj
 .text.uart_is_readable_within_us
                0x0000000000000000       0x20 CMakeFiles/HandGest.dir/home/anonxx/pico/pico-sdk/src/rp2_common/hardware_uart/uart.c.obj
 .text          0x0000000000000000        0x0 CMakeFiles/HandGest.dir/home/anonxx/pico/pico-sdk/src/rp2_common/hardware_divider/divider.S.obj
 .data          0x0000000000000000        0x0 CMakeFiles/HandGest.dir/home/anonxx/pico/pico-sdk/src/rp2_common/hardware_divider/divider.S.obj
 .bss           0x0000000000000000        0x0 CMakeFiles/HandGest.dir/home/anonxx/pico/pico-sdk/src/rp2_common/hardware_divider/divider.S.obj
 .text.hw_divider_divmod_s32
                0x0000000000000000       0x18 CMakeFiles/HandGest.dir/home/anonxx/pico/pico-sdk/src/rp2_common/hardware_divider/divider.S.obj
 .text.hw_divider_divmod_u32
                0x0000000000000000       0x18 CMakeFiles/HandGest.dir/home/anonxx/pico/pico-sdk/src/rp2_common/hardware_divider/divider.S.obj
 .text.hw_divider_save_state
                0x0000000000000000       0x1c CMakeFiles/HandGest.dir/home/anonxx/pico/pico-sdk/src/rp2_common/hardware_divider/divider.S.obj
 .text.hw_divider_restore_state
                0x0000000000000000       0x14 CMakeFiles/HandGest.dir/home/anonxx/pico/pico-sdk/src/rp2_common/hardware_divider/divider.S.obj
 .debug_line    0x0000000000000000       0xcb CMakeFiles/HandGest.dir/home/anonxx/pico/pico-sdk/src/rp2_common/hardware_divider/divider.S.obj
 .debug_info    0x0000000000000000       0x22 CMakeFiles/HandGest.dir/home/anonxx/pico/pico-sdk/src/rp2_common/hardware_divider/divider.S.obj
 .debug_abbrev  0x0000000000000000       0x12 CMakeFiles/HandGest.dir/home/anonxx/pico/pico-sdk/src/rp2_common/hardware_divider/divider.S.obj
 .debug_aranges
                0x0000000000000000       0x38 CMakeFiles/HandGest.dir/home/anonxx/pico/pico-sdk/src/rp2_common/hardware_divider/divider.S.obj
 .debug_str     0x0000000000000000       0x73 CMakeFiles/HandGest.dir/home/anonxx/pico/pico-sdk/src/rp2_common/hardware_divider/divider.S.obj
 .debug_ranges  0x0000000000000000       0x30 CMakeFiles/HandGest.dir/home/anonxx/pico/pico-sdk/src/rp2_common/hardware_divider/divider.S.obj
 .ARM.attributes
                0x0000000000000000       0x22 CMakeFiles/HandGest.dir/home/anonxx/pico/pico-sdk/src/rp2_common/hardware_divider/divider.S.obj
 .text          0x0000000000000000        0x0 CMakeFiles/HandGest.dir/home/anonxx/pico/pico-sdk/src/common/pico_time/time.c.obj
 .data          0x0000000000000000        0x0 CMakeFiles/HandGest.dir/home/anonxx/pico/pico-sdk/src/common/pico_time/time.c.obj
 .bss           0x0000000000000000        0x0 CMakeFiles/HandGest.dir/home/anonxx/pico/pico-sdk/src/common/pico_time/time.c.obj
 .text.repeating_timer_callback
                0x0000000000000000       0x40 CMakeFiles/HandGest.dir/home/anonxx/pico/pico-sdk/src/common/pico_time/time.c.obj
 .text.alarm_pool_dump_key
                0x0000000000000000       0x70 CMakeFiles/HandGest.dir/home/anonxx/pico/pico-sdk/src/common/pico_time/time.c.obj
 .text.alarm_pool_create
                0x0000000000000000       0x40 CMakeFiles/HandGest.dir/home/anonxx/pico/pico-sdk/src/common/pico_time/time.c.obj
 .rodata.alarm_pool_destroy.str1.4
                0x0000000000000000       0x30 CMakeFiles/HandGest.dir/home/anonxx/pico/pico-sdk/src/common/pico_time/time.c.obj
 .text.alarm_pool_destroy
                0x0000000000000000       0x78 CMakeFiles/HandGest.dir/home/anonxx/pico/pico-sdk/src/common/pico_time/time.c.obj
 .text.alarm_pool_hardware_alarm_num
                0x0000000000000000        0x4 CMakeFiles/HandGest.dir/home/anonxx/pico/pico-sdk/src/common/pico_time/time.c.obj
 .text.alarm_pool_add_repeating_timer_us
                0x0000000000000000       0x9c CMakeFiles/HandGest.dir/home/anonxx/pico/pico-sdk/src/common/pico_time/time.c.obj
 .text.cancel_repeating_timer
                0x0000000000000000       0x1a CMakeFiles/HandGest.dir/home/anonxx/pico/pico-sdk/src/common/pico_time/time.c.obj
 .text.alarm_pool_dump
                0x0000000000000000       0x34 CMakeFiles/HandGest.dir/home/anonxx/pico/pico-sdk/src/common/pico_time/time.c.obj
 .rodata.sleep_until.str1.4
                0x0000000000000000       0x4d CMakeFiles/HandGest.dir/home/anonxx/pico/pico-sdk/src/common/pico_time/time.c.obj
 .text.sleep_until
                0x0000000000000000       0xd4 CMakeFiles/HandGest.dir/home/anonxx/pico/pico-sdk/src/common/pico_time/time.c.obj
 .text.sleep_us
                0x0000000000000000       0x58 CMakeFiles/HandGest.dir/home/anonxx/pico/pico-sdk/src/common/pico_time/time.c.obj
 .text.sleep_ms
                0x0000000000000000       0x14 CMakeFiles/HandGest.dir/home/anonxx/pico/pico-sdk/src/common/pico_time/time.c.obj
 .rodata.__func__.6160
                0x0000000000000000       0x13 CMakeFiles/HandGest.dir/home/anonxx/pico/pico-sdk/src/common/pico_time/time.c.obj
 .rodata.__func__.6198
                0x0000000000000000       0x19 CMakeFiles/HandGest.dir/home/anonxx/pico/pico-sdk/src/common/pico_time/time.c.obj
 .rodata.at_the_end_of_time
                0x0000000000000000        0x8 CMakeFiles/HandGest.dir/home/anonxx/pico/pico-sdk/src/common/pico_time/time.c.obj
 .rodata.nil_time
                0x0000000000000000        0x8 CMakeFiles/HandGest.dir/home/anonxx/pico/pico-sdk/src/common/pico_time/time.c.obj
 .text          0x0000000000000000        0x0 CMakeFiles/HandGest.dir/home/anonxx/pico/pico-sdk/src/common/pico_time/timeout_helper.c.obj
 .data          0x0000000000000000        0x0 CMakeFiles/HandGest.dir/home/anonxx/pico/pico-sdk/src/common/pico_time/timeout_helper.c.obj
 .bss           0x0000000000000000        0x0 CMakeFiles/HandGest.dir/home/anonxx/pico/pico-sdk/src/common/pico_time/timeout_helper.c.obj
 .text.check_single_timeout_us
                0x0000000000000000       0x2c CMakeFiles/HandGest.dir/home/anonxx/pico/pico-sdk/src/common/pico_time/timeout_helper.c.obj
 .rodata.check_per_iteration_timeout_us.str1.4
                0x0000000000000000       0x61 CMakeFiles/HandGest.dir/home/anonxx/pico/pico-sdk/src/common/pico_time/timeout_helper.c.obj
 .text.check_per_iteration_timeout_us
                0x0000000000000000       0x88 CMakeFiles/HandGest.dir/home/anonxx/pico/pico-sdk/src/common/pico_time/timeout_helper.c.obj
 .text.init_single_timeout_until
                0x0000000000000000        0xc CMakeFiles/HandGest.dir/home/anonxx/pico/pico-sdk/src/common/pico_time/timeout_helper.c.obj
 .text.init_per_iteration_timeout_us
                0x0000000000000000       0x64 CMakeFiles/HandGest.dir/home/anonxx/pico/pico-sdk/src/common/pico_time/timeout_helper.c.obj
 .rodata.__func__.4193
                0x0000000000000000       0x15 CMakeFiles/HandGest.dir/home/anonxx/pico/pico-sdk/src/common/pico_time/timeout_helper.c.obj
 .debug_info    0x0000000000000000      0x7fb CMakeFiles/HandGest.dir/home/anonxx/pico/pico-sdk/src/common/pico_time/timeout_helper.c.obj
 .debug_abbrev  0x0000000000000000      0x256 CMakeFiles/HandGest.dir/home/anonxx/pico/pico-sdk/src/common/pico_time/timeout_helper.c.obj
 .debug_loc     0x0000000000000000      0x464 CMakeFiles/HandGest.dir/home/anonxx/pico/pico-sdk/src/common/pico_time/timeout_helper.c.obj
 .debug_aranges
                0x0000000000000000       0x38 CMakeFiles/HandGest.dir/home/anonxx/pico/pico-sdk/src/common/pico_time/timeout_helper.c.obj
 .debug_ranges  0x0000000000000000      0x148 CMakeFiles/HandGest.dir/home/anonxx/pico/pico-sdk/src/common/pico_time/timeout_helper.c.obj
 .debug_line    0x0000000000000000      0x4a2 CMakeFiles/HandGest.dir/home/anonxx/pico/pico-sdk/src/common/pico_time/timeout_helper.c.obj
 .debug_str     0x0000000000000000      0x40d CMakeFiles/HandGest.dir/home/anonxx/pico/pico-sdk/src/common/pico_time/timeout_helper.c.obj
 .comment       0x0000000000000000       0x5a CMakeFiles/HandGest.dir/home/anonxx/pico/pico-sdk/src/common/pico_time/timeout_helper.c.obj
 .debug_frame   0x0000000000000000       0x6c CMakeFiles/HandGest.dir/home/anonxx/pico/pico-sdk/src/common/pico_time/timeout_helper.c.obj
 .ARM.attributes
                0x0000000000000000       0x2c CMakeFiles/HandGest.dir/home/anonxx/pico/pico-sdk/src/common/pico_time/timeout_helper.c.obj
 .text          0x0000000000000000        0x0 CMakeFiles/HandGest.dir/home/anonxx/pico/pico-sdk/src/rp2_common/hardware_timer/timer.c.obj
 .data          0x0000000000000000        0x0 CMakeFiles/HandGest.dir/home/anonxx/pico/pico-sdk/src/rp2_common/hardware_timer/timer.c.obj
 .bss           0x0000000000000000        0x0 CMakeFiles/HandGest.dir/home/anonxx/pico/pico-sdk/src/rp2_common/hardware_timer/timer.c.obj
 .text.hardware_alarm_unclaim
                0x0000000000000000       0x10 CMakeFiles/HandGest.dir/home/anonxx/pico/pico-sdk/src/rp2_common/hardware_timer/timer.c.obj
 .text.busy_wait_until
                0x0000000000000000       0x24 CMakeFiles/HandGest.dir/home/anonxx/pico/pico-sdk/src/rp2_common/hardware_timer/timer.c.obj
 .rodata.busy_wait_us.str1.4
                0x0000000000000000       0x61 CMakeFiles/HandGest.dir/home/anonxx/pico/pico-sdk/src/rp2_common/hardware_timer/timer.c.obj
 .text.busy_wait_us
                0x0000000000000000       0x48 CMakeFiles/HandGest.dir/home/anonxx/pico/pico-sdk/src/rp2_common/hardware_timer/timer.c.obj
 .text.busy_wait_us_32
                0x0000000000000000       0x24 CMakeFiles/HandGest.dir/home/anonxx/pico/pico-sdk/src/rp2_common/hardware_timer/timer.c.obj
 .rodata.__func__.4193
                0x0000000000000000       0x15 CMakeFiles/HandGest.dir/home/anonxx/pico/pico-sdk/src/rp2_common/hardware_timer/timer.c.obj
 .text          0x0000000000000000        0x0 CMakeFiles/HandGest.dir/home/anonxx/pico/pico-sdk/src/common/pico_sync/sem.c.obj
 .data          0x0000000000000000        0x0 CMakeFiles/HandGest.dir/home/anonxx/pico/pico-sdk/src/common/pico_sync/sem.c.obj
 .bss           0x0000000000000000        0x0 CMakeFiles/HandGest.dir/home/anonxx/pico/pico-sdk/src/common/pico_sync/sem.c.obj
 .text.sem_init
                0x0000000000000000       0x1e CMakeFiles/HandGest.dir/home/anonxx/pico/pico-sdk/src/common/pico_sync/sem.c.obj
 .time_critical.sem_available
                0x0000000000000000        0x6 CMakeFiles/HandGest.dir/home/anonxx/pico/pico-sdk/src/common/pico_sync/sem.c.obj
 .time_critical.sem_acquire_blocking
                0x0000000000000000       0x40 CMakeFiles/HandGest.dir/home/anonxx/pico/pico-sdk/src/common/pico_sync/sem.c.obj
 .rodata.str1.4
                0x0000000000000000       0xc6 CMakeFiles/HandGest.dir/home/anonxx/pico/pico-sdk/src/common/pico_sync/sem.c.obj
 .time_critical.sem_acquire_timeout_ms
                0x0000000000000000       0xd4 CMakeFiles/HandGest.dir/home/anonxx/pico/pico-sdk/src/common/pico_sync/sem.c.obj
 .time_critical.sem_release
                0x0000000000000000       0x3e CMakeFiles/HandGest.dir/home/anonxx/pico/pico-sdk/src/common/pico_sync/sem.c.obj
 .time_critical.sem_reset
                0x0000000000000000       0x54 CMakeFiles/HandGest.dir/home/anonxx/pico/pico-sdk/src/common/pico_sync/sem.c.obj
 .rodata.__func__.4193
                0x0000000000000000       0x15 CMakeFiles/HandGest.dir/home/anonxx/pico/pico-sdk/src/common/pico_sync/sem.c.obj
 .rodata.__func__.4617
                0x0000000000000000        0xa CMakeFiles/HandGest.dir/home/anonxx/pico/pico-sdk/src/common/pico_sync/sem.c.obj
 .debug_info    0x0000000000000000      0xd75 CMakeFiles/HandGest.dir/home/anonxx/pico/pico-sdk/src/common/pico_sync/sem.c.obj
 .debug_abbrev  0x0000000000000000      0x338 CMakeFiles/HandGest.dir/home/anonxx/pico/pico-sdk/src/common/pico_sync/sem.c.obj
 .debug_loc     0x0000000000000000      0x73d CMakeFiles/HandGest.dir/home/anonxx/pico/pico-sdk/src/common/pico_sync/sem.c.obj
 .debug_aranges
                0x0000000000000000       0x48 CMakeFiles/HandGest.dir/home/anonxx/pico/pico-sdk/src/common/pico_sync/sem.c.obj
 .debug_ranges  0x0000000000000000      0x398 CMakeFiles/HandGest.dir/home/anonxx/pico/pico-sdk/src/common/pico_sync/sem.c.obj
 .debug_line    0x0000000000000000      0x764 CMakeFiles/HandGest.dir/home/anonxx/pico/pico-sdk/src/common/pico_sync/sem.c.obj
 .debug_str     0x0000000000000000      0x499 CMakeFiles/HandGest.dir/home/anonxx/pico/pico-sdk/src/common/pico_sync/sem.c.obj
 .comment       0x0000000000000000       0x5a CMakeFiles/HandGest.dir/home/anonxx/pico/pico-sdk/src/common/pico_sync/sem.c.obj
 .debug_frame   0x0000000000000000       0xac CMakeFiles/HandGest.dir/home/anonxx/pico/pico-sdk/src/common/pico_sync/sem.c.obj
 .ARM.attributes
                0x0000000000000000       0x2c CMakeFiles/HandGest.dir/home/anonxx/pico/pico-sdk/src/common/pico_sync/sem.c.obj
 .text          0x0000000000000000        0x0 CMakeFiles/HandGest.dir/home/anonxx/pico/pico-sdk/src/common/pico_sync/lock_core.c.obj
 .data          0x0000000000000000        0x0 CMakeFiles/HandGest.dir/home/anonxx/pico/pico-sdk/src/common/pico_sync/lock_core.c.obj
 .bss           0x0000000000000000        0x0 CMakeFiles/HandGest.dir/home/anonxx/pico/pico-sdk/src/common/pico_sync/lock_core.c.obj
 .text          0x0000000000000000        0x0 CMakeFiles/HandGest.dir/home/anonxx/pico/pico-sdk/src/common/pico_sync/mutex.c.obj
 .data          0x0000000000000000        0x0 CMakeFiles/HandGest.dir/home/anonxx/pico/pico-sdk/src/common/pico_sync/mutex.c.obj
 .bss           0x0000000000000000        0x0 CMakeFiles/HandGest.dir/home/anonxx/pico/pico-sdk/src/common/pico_sync/mutex.c.obj
 .text          0x0000000000000000        0x0 CMakeFiles/HandGest.dir/home/anonxx/pico/pico-sdk/src/common/pico_sync/critical_section.c.obj
 .data          0x0000000000000000        0x0 CMakeFiles/HandGest.dir/home/anonxx/pico/pico-sdk/src/common/pico_sync/critical_section.c.obj
 .bss           0x0000000000000000        0x0 CMakeFiles/HandGest.dir/home/anonxx/pico/pico-sdk/src/common/pico_sync/critical_section.c.obj
 .text.critical_section_deinit
                0x0000000000000000       0x18 CMakeFiles/HandGest.dir/home/anonxx/pico/pico-sdk/src/common/pico_sync/critical_section.c.obj
 .text          0x0000000000000000        0x0 CMakeFiles/HandGest.dir/home/anonxx/pico/pico-sdk/src/common/pico_util/datetime.c.obj
 .data          0x0000000000000000        0x0 CMakeFiles/HandGest.dir/home/anonxx/pico/pico-sdk/src/common/pico_util/datetime.c.obj
 .bss           0x0000000000000000        0x0 CMakeFiles/HandGest.dir/home/anonxx/pico/pico-sdk/src/common/pico_util/datetime.c.obj
 .rodata.datetime_to_str.str1.4
                0x0000000000000000       0x19 CMakeFiles/HandGest.dir/home/anonxx/pico/pico-sdk/src/common/pico_util/datetime.c.obj
 .text.datetime_to_str
                0x0000000000000000       0x64 CMakeFiles/HandGest.dir/home/anonxx/pico/pico-sdk/src/common/pico_util/datetime.c.obj
 .rodata.str1.4
                0x0000000000000000       0xad CMakeFiles/HandGest.dir/home/anonxx/pico/pico-sdk/src/common/pico_util/datetime.c.obj
 .rodata.DATETIME_DOWS
                0x0000000000000000       0x1c CMakeFiles/HandGest.dir/home/anonxx/pico/pico-sdk/src/common/pico_util/datetime.c.obj
 .rodata.DATETIME_MONTHS
                0x0000000000000000       0x30 CMakeFiles/HandGest.dir/home/anonxx/pico/pico-sdk/src/common/pico_util/datetime.c.obj
 .debug_info    0x0000000000000000      0xa81 CMakeFiles/HandGest.dir/home/anonxx/pico/pico-sdk/src/common/pico_util/datetime.c.obj
 .debug_abbrev  0x0000000000000000      0x221 CMakeFiles/HandGest.dir/home/anonxx/pico/pico-sdk/src/common/pico_util/datetime.c.obj
 .debug_loc     0x0000000000000000       0x7c CMakeFiles/HandGest.dir/home/anonxx/pico/pico-sdk/src/common/pico_util/datetime.c.obj
 .debug_aranges
                0x0000000000000000       0x20 CMakeFiles/HandGest.dir/home/anonxx/pico/pico-sdk/src/common/pico_util/datetime.c.obj
 .debug_ranges  0x0000000000000000       0x10 CMakeFiles/HandGest.dir/home/anonxx/pico/pico-sdk/src/common/pico_util/datetime.c.obj
 .debug_line    0x0000000000000000      0x173 CMakeFiles/HandGest.dir/home/anonxx/pico/pico-sdk/src/common/pico_util/datetime.c.obj
 .debug_str     0x0000000000000000      0x5fc CMakeFiles/HandGest.dir/home/anonxx/pico/pico-sdk/src/common/pico_util/datetime.c.obj
 .comment       0x0000000000000000       0x5a CMakeFiles/HandGest.dir/home/anonxx/pico/pico-sdk/src/common/pico_util/datetime.c.obj
 .debug_frame   0x0000000000000000       0x38 CMakeFiles/HandGest.dir/home/anonxx/pico/pico-sdk/src/common/pico_util/datetime.c.obj
 .ARM.attributes
                0x0000000000000000       0x2c CMakeFiles/HandGest.dir/home/anonxx/pico/pico-sdk/src/common/pico_util/datetime.c.obj
 .text          0x0000000000000000        0x0 CMakeFiles/HandGest.dir/home/anonxx/pico/pico-sdk/src/common/pico_util/pheap.c.obj
 .data          0x0000000000000000        0x0 CMakeFiles/HandGest.dir/home/anonxx/pico/pico-sdk/src/common/pico_util/pheap.c.obj
 .bss           0x0000000000000000        0x0 CMakeFiles/HandGest.dir/home/anonxx/pico/pico-sdk/src/common/pico_util/pheap.c.obj
 .rodata.ph_dump_node.str1.4
                0x0000000000000000       0x15 CMakeFiles/HandGest.dir/home/anonxx/pico/pico-sdk/src/common/pico_util/pheap.c.obj
 .text.ph_dump_node
                0x0000000000000000       0xb4 CMakeFiles/HandGest.dir/home/anonxx/pico/pico-sdk/src/common/pico_util/pheap.c.obj
 .text.ph_create
                0x0000000000000000       0x2c CMakeFiles/HandGest.dir/home/anonxx/pico/pico-sdk/src/common/pico_util/pheap.c.obj
 .text.ph_destroy
                0x0000000000000000       0x12 CMakeFiles/HandGest.dir/home/anonxx/pico/pico-sdk/src/common/pico_util/pheap.c.obj
 .rodata.ph_dump.str1.4
                0x0000000000000000        0xf CMakeFiles/HandGest.dir/home/anonxx/pico/pico-sdk/src/common/pico_util/pheap.c.obj
 .text.ph_dump  0x0000000000000000       0x24 CMakeFiles/HandGest.dir/home/anonxx/pico/pico-sdk/src/common/pico_util/pheap.c.obj
 .text          0x0000000000000000        0x0 CMakeFiles/HandGest.dir/home/anonxx/pico/pico-sdk/src/common/pico_util/queue.c.obj
 .data          0x0000000000000000        0x0 CMakeFiles/HandGest.dir/home/anonxx/pico/pico-sdk/src/common/pico_util/queue.c.obj
 .bss           0x0000000000000000        0x0 CMakeFiles/HandGest.dir/home/anonxx/pico/pico-sdk/src/common/pico_util/queue.c.obj
 .text.queue_init_with_spinlock
                0x0000000000000000       0x2c CMakeFiles/HandGest.dir/home/anonxx/pico/pico-sdk/src/common/pico_util/queue.c.obj
 .text.queue_free
                0x0000000000000000        0xa CMakeFiles/HandGest.dir/home/anonxx/pico/pico-sdk/src/common/pico_util/queue.c.obj
 .rodata.queue_try_add.str1.4
                0x0000000000000000       0x54 CMakeFiles/HandGest.dir/home/anonxx/pico/pico-sdk/src/common/pico_util/queue.c.obj
 .text.queue_try_add
                0x0000000000000000       0x84 CMakeFiles/HandGest.dir/home/anonxx/pico/pico-sdk/src/common/pico_util/queue.c.obj
 .text.queue_try_remove
                0x0000000000000000       0x84 CMakeFiles/HandGest.dir/home/anonxx/pico/pico-sdk/src/common/pico_util/queue.c.obj
 .text.queue_try_peek
                0x0000000000000000       0x6c CMakeFiles/HandGest.dir/home/anonxx/pico/pico-sdk/src/common/pico_util/queue.c.obj
 .text.queue_add_blocking
                0x0000000000000000       0x18 CMakeFiles/HandGest.dir/home/anonxx/pico/pico-sdk/src/common/pico_util/queue.c.obj
 .text.queue_remove_blocking
                0x0000000000000000       0x18 CMakeFiles/HandGest.dir/home/anonxx/pico/pico-sdk/src/common/pico_util/queue.c.obj
 .text.queue_peek_blocking
                0x0000000000000000       0x18 CMakeFiles/HandGest.dir/home/anonxx/pico/pico-sdk/src/common/pico_util/queue.c.obj
 .rodata.__func__.5222
                0x0000000000000000        0xc CMakeFiles/HandGest.dir/home/anonxx/pico/pico-sdk/src/common/pico_util/queue.c.obj
 .debug_info    0x0000000000000000     0x156c CMakeFiles/HandGest.dir/home/anonxx/pico/pico-sdk/src/common/pico_util/queue.c.obj
 .debug_abbrev  0x0000000000000000      0x3bf CMakeFiles/HandGest.dir/home/anonxx/pico/pico-sdk/src/common/pico_util/queue.c.obj
 .debug_loc     0x0000000000000000      0x9e3 CMakeFiles/HandGest.dir/home/anonxx/pico/pico-sdk/src/common/pico_util/queue.c.obj
 .debug_aranges
                0x0000000000000000       0x58 CMakeFiles/HandGest.dir/home/anonxx/pico/pico-sdk/src/common/pico_util/queue.c.obj
 .debug_ranges  0x0000000000000000      0x2b8 CMakeFiles/HandGest.dir/home/anonxx/pico/pico-sdk/src/common/pico_util/queue.c.obj
 .debug_line    0x0000000000000000      0x73c CMakeFiles/HandGest.dir/home/anonxx/pico/pico-sdk/src/common/pico_util/queue.c.obj
 .debug_str     0x0000000000000000      0x803 CMakeFiles/HandGest.dir/home/anonxx/pico/pico-sdk/src/common/pico_util/queue.c.obj
 .comment       0x0000000000000000       0x5a CMakeFiles/HandGest.dir/home/anonxx/pico/pico-sdk/src/common/pico_util/queue.c.obj
 .debug_frame   0x0000000000000000       0xec CMakeFiles/HandGest.dir/home/anonxx/pico/pico-sdk/src/common/pico_util/queue.c.obj
 .ARM.attributes
                0x0000000000000000       0x2c CMakeFiles/HandGest.dir/home/anonxx/pico/pico-sdk/src/common/pico_util/queue.c.obj
 .text          0x0000000000000000        0x0 CMakeFiles/HandGest.dir/home/anonxx/pico/pico-sdk/src/rp2_common/pico_runtime/runtime.c.obj
 .data          0x0000000000000000        0x0 CMakeFiles/HandGest.dir/home/anonxx/pico/pico-sdk/src/rp2_common/pico_runtime/runtime.c.obj
 .bss           0x0000000000000000        0x0 CMakeFiles/HandGest.dir/home/anonxx/pico/pico-sdk/src/rp2_common/pico_runtime/runtime.c.obj
 .text.runtime_install_stack_guard
                0x0000000000000000       0x40 CMakeFiles/HandGest.dir/home/anonxx/pico/pico-sdk/src/rp2_common/pico_runtime/runtime.c.obj
 .text._sbrk    0x0000000000000000       0x38 CMakeFiles/HandGest.dir/home/anonxx/pico/pico-sdk/src/rp2_common/pico_runtime/runtime.c.obj
 .rodata.panic_unsupported.str1.4
                0x0000000000000000        0xe CMakeFiles/HandGest.dir/home/anonxx/pico/pico-sdk/src/rp2_common/pico_runtime/runtime.c.obj
 .text.panic_unsupported
                0x0000000000000000        0xc CMakeFiles/HandGest.dir/home/anonxx/pico/pico-sdk/src/rp2_common/pico_runtime/runtime.c.obj
 .rodata.hard_assertion_failure.str1.4
                0x0000000000000000        0xc CMakeFiles/HandGest.dir/home/anonxx/pico/pico-sdk/src/rp2_common/pico_runtime/runtime.c.obj
 .text.hard_assertion_failure
                0x0000000000000000        0xc CMakeFiles/HandGest.dir/home/anonxx/pico/pico-sdk/src/rp2_common/pico_runtime/runtime.c.obj
 .bss.heap_end.5794
                0x0000000000000000        0x4 CMakeFiles/HandGest.dir/home/anonxx/pico/pico-sdk/src/rp2_common/pico_runtime/runtime.c.obj
 .text          0x0000000000000000        0x0 CMakeFiles/HandGest.dir/home/anonxx/pico/pico-sdk/src/rp2_common/hardware_clocks/clocks.c.obj
 .data          0x0000000000000000        0x0 CMakeFiles/HandGest.dir/home/anonxx/pico/pico-sdk/src/rp2_common/hardware_clocks/clocks.c.obj
 .bss           0x0000000000000000        0x0 CMakeFiles/HandGest.dir/home/anonxx/pico/pico-sdk/src/rp2_common/hardware_clocks/clocks.c.obj
 .text.clock_stop
                0x0000000000000000       0x2c CMakeFiles/HandGest.dir/home/anonxx/pico/pico-sdk/src/rp2_common/hardware_clocks/clocks.c.obj
 .rodata.clocks_handle_resus.str1.4
                0x0000000000000000       0x8b CMakeFiles/HandGest.dir/home/anonxx/pico/pico-sdk/src/rp2_common/hardware_clocks/clocks.c.obj
 .text.clocks_handle_resus
                0x0000000000000000       0x80 CMakeFiles/HandGest.dir/home/anonxx/pico/pico-sdk/src/rp2_common/hardware_clocks/clocks.c.obj
 .rodata.clocks_irq_handler.str1.4
                0x0000000000000000       0x17 CMakeFiles/HandGest.dir/home/anonxx/pico/pico-sdk/src/rp2_common/hardware_clocks/clocks.c.obj
 .text.clocks_irq_handler
                0x0000000000000000       0x2c CMakeFiles/HandGest.dir/home/anonxx/pico/pico-sdk/src/rp2_common/hardware_clocks/clocks.c.obj
 .text.clock_set_reported_hz
                0x0000000000000000        0xc CMakeFiles/HandGest.dir/home/anonxx/pico/pico-sdk/src/rp2_common/hardware_clocks/clocks.c.obj
 .text.frequency_count_khz
                0x0000000000000000       0x40 CMakeFiles/HandGest.dir/home/anonxx/pico/pico-sdk/src/rp2_common/hardware_clocks/clocks.c.obj
 .text.clocks_enable_resus
                0x0000000000000000       0x34 CMakeFiles/HandGest.dir/home/anonxx/pico/pico-sdk/src/rp2_common/hardware_clocks/clocks.c.obj
 .text.clock_gpio_init
                0x0000000000000000       0x4c CMakeFiles/HandGest.dir/home/anonxx/pico/pico-sdk/src/rp2_common/hardware_clocks/clocks.c.obj
 .text.clock_configure_gpin
                0x0000000000000000       0x5c CMakeFiles/HandGest.dir/home/anonxx/pico/pico-sdk/src/rp2_common/hardware_clocks/clocks.c.obj
 .bss._resus_callback
                0x0000000000000000        0x4 CMakeFiles/HandGest.dir/home/anonxx/pico/pico-sdk/src/rp2_common/hardware_clocks/clocks.c.obj
 .rodata.__func__.4698
                0x0000000000000000       0x14 CMakeFiles/HandGest.dir/home/anonxx/pico/pico-sdk/src/rp2_common/hardware_clocks/clocks.c.obj
 .rodata.gpin0_src
                0x0000000000000000        0xa CMakeFiles/HandGest.dir/home/anonxx/pico/pico-sdk/src/rp2_common/hardware_clocks/clocks.c.obj
 .text          0x0000000000000000        0x0 CMakeFiles/HandGest.dir/home/anonxx/pico/pico-sdk/src/rp2_common/hardware_watchdog/watchdog.c.obj
 .data          0x0000000000000000        0x0 CMakeFiles/HandGest.dir/home/anonxx/pico/pico-sdk/src/rp2_common/hardware_watchdog/watchdog.c.obj
 .bss           0x0000000000000000        0x0 CMakeFiles/HandGest.dir/home/anonxx/pico/pico-sdk/src/rp2_common/hardware_watchdog/watchdog.c.obj
 .text.watchdog_get_count
                0x0000000000000000       0x10 CMakeFiles/HandGest.dir/home/anonxx/pico/pico-sdk/src/rp2_common/hardware_watchdog/watchdog.c.obj
 .text.watchdog_enable
                0x0000000000000000       0x14 CMakeFiles/HandGest.dir/home/anonxx/pico/pico-sdk/src/rp2_common/hardware_watchdog/watchdog.c.obj
 .text.watchdog_caused_reboot
                0x0000000000000000       0x10 CMakeFiles/HandGest.dir/home/anonxx/pico/pico-sdk/src/rp2_common/hardware_watchdog/watchdog.c.obj
 .text          0x0000000000000000        0x0 CMakeFiles/HandGest.dir/home/anonxx/pico/pico-sdk/src/rp2_common/hardware_xosc/xosc.c.obj
 .data          0x0000000000000000        0x0 CMakeFiles/HandGest.dir/home/anonxx/pico/pico-sdk/src/rp2_common/hardware_xosc/xosc.c.obj
 .bss           0x0000000000000000        0x0 CMakeFiles/HandGest.dir/home/anonxx/pico/pico-sdk/src/rp2_common/hardware_xosc/xosc.c.obj
 .text.xosc_disable
                0x0000000000000000       0x24 CMakeFiles/HandGest.dir/home/anonxx/pico/pico-sdk/src/rp2_common/hardware_xosc/xosc.c.obj
 .text.xosc_dormant
                0x0000000000000000       0x18 CMakeFiles/HandGest.dir/home/anonxx/pico/pico-sdk/src/rp2_common/hardware_xosc/xosc.c.obj
 .text          0x0000000000000000        0x0 CMakeFiles/HandGest.dir/home/anonxx/pico/pico-sdk/src/rp2_common/hardware_pll/pll.c.obj
 .data          0x0000000000000000        0x0 CMakeFiles/HandGest.dir/home/anonxx/pico/pico-sdk/src/rp2_common/hardware_pll/pll.c.obj
 .bss           0x0000000000000000        0x0 CMakeFiles/HandGest.dir/home/anonxx/pico/pico-sdk/src/rp2_common/hardware_pll/pll.c.obj
 .text.pll_deinit
                0x0000000000000000        0x6 CMakeFiles/HandGest.dir/home/anonxx/pico/pico-sdk/src/rp2_common/hardware_pll/pll.c.obj
 .text          0x0000000000000000        0x0 CMakeFiles/HandGest.dir/home/anonxx/pico/pico-sdk/src/rp2_common/hardware_vreg/vreg.c.obj
 .data          0x0000000000000000        0x0 CMakeFiles/HandGest.dir/home/anonxx/pico/pico-sdk/src/rp2_common/hardware_vreg/vreg.c.obj
 .bss           0x0000000000000000        0x0 CMakeFiles/HandGest.dir/home/anonxx/pico/pico-sdk/src/rp2_common/hardware_vreg/vreg.c.obj
 .text.vreg_set_voltage
                0x0000000000000000       0x1c CMakeFiles/HandGest.dir/home/anonxx/pico/pico-sdk/src/rp2_common/hardware_vreg/vreg.c.obj
 .debug_info    0x0000000000000000      0x238 CMakeFiles/HandGest.dir/home/anonxx/pico/pico-sdk/src/rp2_common/hardware_vreg/vreg.c.obj
 .debug_abbrev  0x0000000000000000      0x11d CMakeFiles/HandGest.dir/home/anonxx/pico/pico-sdk/src/rp2_common/hardware_vreg/vreg.c.obj
 .debug_loc     0x0000000000000000       0x9a CMakeFiles/HandGest.dir/home/anonxx/pico/pico-sdk/src/rp2_common/hardware_vreg/vreg.c.obj
 .debug_aranges
                0x0000000000000000       0x20 CMakeFiles/HandGest.dir/home/anonxx/pico/pico-sdk/src/rp2_common/hardware_vreg/vreg.c.obj
 .debug_ranges  0x0000000000000000       0x10 CMakeFiles/HandGest.dir/home/anonxx/pico/pico-sdk/src/rp2_common/hardware_vreg/vreg.c.obj
 .debug_line    0x0000000000000000      0x239 CMakeFiles/HandGest.dir/home/anonxx/pico/pico-sdk/src/rp2_common/hardware_vreg/vreg.c.obj
 .debug_str     0x0000000000000000      0x33b CMakeFiles/HandGest.dir/home/anonxx/pico/pico-sdk/src/rp2_common/hardware_vreg/vreg.c.obj
 .comment       0x0000000000000000       0x5a CMakeFiles/HandGest.dir/home/anonxx/pico/pico-sdk/src/rp2_common/hardware_vreg/vreg.c.obj
 .debug_frame   0x0000000000000000       0x20 CMakeFiles/HandGest.dir/home/anonxx/pico/pico-sdk/src/rp2_common/hardware_vreg/vreg.c.obj
 .ARM.attributes
                0x0000000000000000       0x2c CMakeFiles/HandGest.dir/home/anonxx/pico/pico-sdk/src/rp2_common/hardware_vreg/vreg.c.obj
 .text          0x0000000000000000        0x0 CMakeFiles/HandGest.dir/home/anonxx/pico/pico-sdk/src/rp2_common/hardware_irq/irq.c.obj
 .data          0x0000000000000000        0x0 CMakeFiles/HandGest.dir/home/anonxx/pico/pico-sdk/src/rp2_common/hardware_irq/irq.c.obj
 .bss           0x0000000000000000        0x0 CMakeFiles/HandGest.dir/home/anonxx/pico/pico-sdk/src/rp2_common/hardware_irq/irq.c.obj
 .text.irq_get_exclusive_handler
                0x0000000000000000       0x4c CMakeFiles/HandGest.dir/home/anonxx/pico/pico-sdk/src/rp2_common/hardware_irq/irq.c.obj
 .text.irq_add_shared_handler
                0x0000000000000000      0x230 CMakeFiles/HandGest.dir/home/anonxx/pico/pico-sdk/src/rp2_common/hardware_irq/irq.c.obj
 .rodata.__func__.4537
                0x0000000000000000       0x17 CMakeFiles/HandGest.dir/home/anonxx/pico/pico-sdk/src/rp2_common/hardware_irq/irq.c.obj
 .text          0x0000000000000000        0x0 CMakeFiles/HandGest.dir/home/anonxx/pico/pico-sdk/src/rp2_common/hardware_irq/irq_handler_chain.S.obj
 .bss           0x0000000000000000        0x0 CMakeFiles/HandGest.dir/home/anonxx/pico/pico-sdk/src/rp2_common/hardware_irq/irq_handler_chain.S.obj
 .text          0x0000000000000000        0x0 CMakeFiles/HandGest.dir/home/anonxx/pico/pico-sdk/src/rp2_common/pico_printf/printf.c.obj
 .data          0x0000000000000000        0x0 CMakeFiles/HandGest.dir/home/anonxx/pico/pico-sdk/src/rp2_common/pico_printf/printf.c.obj
 .bss           0x0000000000000000        0x0 CMakeFiles/HandGest.dir/home/anonxx/pico/pico-sdk/src/rp2_common/pico_printf/printf.c.obj
 .text._out_buffer
                0x0000000000000000        0x8 CMakeFiles/HandGest.dir/home/anonxx/pico/pico-sdk/src/rp2_common/pico_printf/printf.c.obj
 .text.__wrap_sprintf
                0x0000000000000000       0x28 CMakeFiles/HandGest.dir/home/anonxx/pico/pico-sdk/src/rp2_common/pico_printf/printf.c.obj
 .text.__wrap_snprintf
                0x0000000000000000       0x28 CMakeFiles/HandGest.dir/home/anonxx/pico/pico-sdk/src/rp2_common/pico_printf/printf.c.obj
 .text.__wrap_vsnprintf
                0x0000000000000000       0x1c CMakeFiles/HandGest.dir/home/anonxx/pico/pico-sdk/src/rp2_common/pico_printf/printf.c.obj
 .data          0x0000000000000000        0x0 CMakeFiles/HandGest.dir/home/anonxx/pico/pico-sdk/src/rp2_common/pico_bit_ops/bit_ops_aeabi.S.obj
 .bss           0x0000000000000000        0x0 CMakeFiles/HandGest.dir/home/anonxx/pico/pico-sdk/src/rp2_common/pico_bit_ops/bit_ops_aeabi.S.obj
 .text.clzsi    0x0000000000000000        0xc CMakeFiles/HandGest.dir/home/anonxx/pico/pico-sdk/src/rp2_common/pico_bit_ops/bit_ops_aeabi.S.obj
 .text.ctzsi    0x0000000000000000        0xc CMakeFiles/HandGest.dir/home/anonxx/pico/pico-sdk/src/rp2_common/pico_bit_ops/bit_ops_aeabi.S.obj
 .text.popcountsi
                0x0000000000000000        0xc CMakeFiles/HandGest.dir/home/anonxx/pico/pico-sdk/src/rp2_common/pico_bit_ops/bit_ops_aeabi.S.obj
 .text.clzdi    0x0000000000000000       0x18 CMakeFiles/HandGest.dir/home/anonxx/pico/pico-sdk/src/rp2_common/pico_bit_ops/bit_ops_aeabi.S.obj
 .text.ctzdi    0x0000000000000000       0x18 CMakeFiles/HandGest.dir/home/anonxx/pico/pico-sdk/src/rp2_common/pico_bit_ops/bit_ops_aeabi.S.obj
 .text.popcountdi
                0x0000000000000000       0x18 CMakeFiles/HandGest.dir/home/anonxx/pico/pico-sdk/src/rp2_common/pico_bit_ops/bit_ops_aeabi.S.obj
 .text.reverse32
                0x0000000000000000        0xc CMakeFiles/HandGest.dir/home/anonxx/pico/pico-sdk/src/rp2_common/pico_bit_ops/bit_ops_aeabi.S.obj
 .text.__rev    0x0000000000000000        0xc CMakeFiles/HandGest.dir/home/anonxx/pico/pico-sdk/src/rp2_common/pico_bit_ops/bit_ops_aeabi.S.obj
 .text.__revll  0x0000000000000000       0x18 CMakeFiles/HandGest.dir/home/anonxx/pico/pico-sdk/src/rp2_common/pico_bit_ops/bit_ops_aeabi.S.obj
 .text          0x0000000000000000        0x0 CMakeFiles/HandGest.dir/home/anonxx/pico/pico-sdk/src/rp2_common/pico_bootrom/bootrom.c.obj
 .data          0x0000000000000000        0x0 CMakeFiles/HandGest.dir/home/anonxx/pico/pico-sdk/src/rp2_common/pico_bootrom/bootrom.c.obj
 .bss           0x0000000000000000        0x0 CMakeFiles/HandGest.dir/home/anonxx/pico/pico-sdk/src/rp2_common/pico_bootrom/bootrom.c.obj
 .text          0x0000000000000000        0x0 CMakeFiles/HandGest.dir/home/anonxx/pico/pico-sdk/src/rp2_common/pico_divider/divider.S.obj
 .data          0x0000000000000000        0x0 CMakeFiles/HandGest.dir/home/anonxx/pico/pico-sdk/src/rp2_common/pico_divider/divider.S.obj
 .bss           0x0000000000000000        0x0 CMakeFiles/HandGest.dir/home/anonxx/pico/pico-sdk/src/rp2_common/pico_divider/divider.S.obj
 .text.divmod_s64s64_rem
                0x0000000000000000        0xc CMakeFiles/HandGest.dir/home/anonxx/pico/pico-sdk/src/rp2_common/pico_divider/divider.S.obj
 .text.divmod_u64u64_rem
                0x0000000000000000        0xc CMakeFiles/HandGest.dir/home/anonxx/pico/pico-sdk/src/rp2_common/pico_divider/divider.S.obj
 .text          0x0000000000000000        0x0 CMakeFiles/HandGest.dir/home/anonxx/pico/pico-sdk/src/rp2_common/pico_double/double_aeabi.S.obj
 .data          0x0000000000000000        0x0 CMakeFiles/HandGest.dir/home/anonxx/pico/pico-sdk/src/rp2_common/pico_double/double_aeabi.S.obj
 .bss           0x0000000000000000        0x0 CMakeFiles/HandGest.dir/home/anonxx/pico/pico-sdk/src/rp2_common/pico_double/double_aeabi.S.obj
 .text.push_r8_r11
                0x0000000000000000        0xc CMakeFiles/HandGest.dir/home/anonxx/pico/pico-sdk/src/rp2_common/pico_double/double_aeabi.S.obj
 .text.pop_r8_r11
                0x0000000000000000        0xc CMakeFiles/HandGest.dir/home/anonxx/pico/pico-sdk/src/rp2_common/pico_double/double_aeabi.S.obj
 .text.__wrap___aeabi_dcmpeq
                0x0000000000000000       0x10 CMakeFiles/HandGest.dir/home/anonxx/pico/pico-sdk/src/rp2_common/pico_double/double_aeabi.S.obj
 .text.__wrap___aeabi_ui2d
                0x0000000000000000       0x18 CMakeFiles/HandGest.dir/home/anonxx/pico/pico-sdk/src/rp2_common/pico_double/double_aeabi.S.obj
 .text.double2int
                0x0000000000000000       0x18 CMakeFiles/HandGest.dir/home/anonxx/pico/pico-sdk/src/rp2_common/pico_double/double_aeabi.S.obj
 .text.fix2double
                0x0000000000000000       0x18 CMakeFiles/HandGest.dir/home/anonxx/pico/pico-sdk/src/rp2_common/pico_double/double_aeabi.S.obj
 .text.ufix2double
                0x0000000000000000       0x28 CMakeFiles/HandGest.dir/home/anonxx/pico/pico-sdk/src/rp2_common/pico_double/double_aeabi.S.obj
 .text.fix642double
                0x0000000000000000       0x18 CMakeFiles/HandGest.dir/home/anonxx/pico/pico-sdk/src/rp2_common/pico_double/double_aeabi.S.obj
 .text.__wrap___aeabi_l2d
                0x0000000000000000       0x18 CMakeFiles/HandGest.dir/home/anonxx/pico/pico-sdk/src/rp2_common/pico_double/double_aeabi.S.obj
 .text.__wrap___aeabi_ul2d
                0x0000000000000000       0x18 CMakeFiles/HandGest.dir/home/anonxx/pico/pico-sdk/src/rp2_common/pico_double/double_aeabi.S.obj
 .text.__wrap___aeabi_d2lz
                0x0000000000000000       0x26 CMakeFiles/HandGest.dir/home/anonxx/pico/pico-sdk/src/rp2_common/pico_double/double_aeabi.S.obj
 .text.double2int64
                0x0000000000000000       0x18 CMakeFiles/HandGest.dir/home/anonxx/pico/pico-sdk/src/rp2_common/pico_double/double_aeabi.S.obj
 .text.__wrap___aeabi_d2ulz
                0x0000000000000000       0x18 CMakeFiles/HandGest.dir/home/anonxx/pico/pico-sdk/src/rp2_common/pico_double/double_aeabi.S.obj
 .text.double2fix64
                0x0000000000000000       0x18 CMakeFiles/HandGest.dir/home/anonxx/pico/pico-sdk/src/rp2_common/pico_double/double_aeabi.S.obj
 .text.double2ufix64
                0x0000000000000000       0x18 CMakeFiles/HandGest.dir/home/anonxx/pico/pico-sdk/src/rp2_common/pico_double/double_aeabi.S.obj
 .text.double2fix
                0x0000000000000000       0x18 CMakeFiles/HandGest.dir/home/anonxx/pico/pico-sdk/src/rp2_common/pico_double/double_aeabi.S.obj
 .text.double2ufix
                0x0000000000000000       0x18 CMakeFiles/HandGest.dir/home/anonxx/pico/pico-sdk/src/rp2_common/pico_double/double_aeabi.S.obj
 .text.__wrap___aeabi_d2f
                0x0000000000000000       0x18 CMakeFiles/HandGest.dir/home/anonxx/pico/pico-sdk/src/rp2_common/pico_double/double_aeabi.S.obj
 .text.__wrap_srqt
                0x0000000000000000       0x18 CMakeFiles/HandGest.dir/home/anonxx/pico/pico-sdk/src/rp2_common/pico_double/double_aeabi.S.obj
 .text.__wrap_sincostan_remainder
                0x0000000000000000       0x14 CMakeFiles/HandGest.dir/home/anonxx/pico/pico-sdk/src/rp2_common/pico_double/double_aeabi.S.obj
 .text.__wrap_cos
                0x0000000000000000       0x2c CMakeFiles/HandGest.dir/home/anonxx/pico/pico-sdk/src/rp2_common/pico_double/double_aeabi.S.obj
 .text.__wrap_sin
                0x0000000000000000       0x2c CMakeFiles/HandGest.dir/home/anonxx/pico/pico-sdk/src/rp2_common/pico_double/double_aeabi.S.obj
 .text.__wrap_sincos
                0x0000000000000000       0xa0 CMakeFiles/HandGest.dir/home/anonxx/pico/pico-sdk/src/rp2_common/pico_double/double_aeabi.S.obj
 .text.__wrap_tan
                0x0000000000000000       0x2c CMakeFiles/HandGest.dir/home/anonxx/pico/pico-sdk/src/rp2_common/pico_double/double_aeabi.S.obj
 .text.__wrap_atan2
                0x0000000000000000       0x18 CMakeFiles/HandGest.dir/home/anonxx/pico/pico-sdk/src/rp2_common/pico_double/double_aeabi.S.obj
 .text.__wrap_exp
                0x0000000000000000       0x18 CMakeFiles/HandGest.dir/home/anonxx/pico/pico-sdk/src/rp2_common/pico_double/double_aeabi.S.obj
 .text.__wrap_log
                0x0000000000000000       0x18 CMakeFiles/HandGest.dir/home/anonxx/pico/pico-sdk/src/rp2_common/pico_double/double_aeabi.S.obj
 .text          0x0000000000000000        0x0 CMakeFiles/HandGest.dir/home/anonxx/pico/pico-sdk/src/rp2_common/pico_double/double_init_rom.c.obj
 .data          0x0000000000000000        0x0 CMakeFiles/HandGest.dir/home/anonxx/pico/pico-sdk/src/rp2_common/pico_double/double_init_rom.c.obj
 .bss           0x0000000000000000        0x0 CMakeFiles/HandGest.dir/home/anonxx/pico/pico-sdk/src/rp2_common/pico_double/double_init_rom.c.obj
 .text          0x0000000000000000        0x0 CMakeFiles/HandGest.dir/home/anonxx/pico/pico-sdk/src/rp2_common/pico_double/double_math.c.obj
 .data          0x0000000000000000        0x0 CMakeFiles/HandGest.dir/home/anonxx/pico/pico-sdk/src/rp2_common/pico_double/double_math.c.obj
 .bss           0x0000000000000000        0x0 CMakeFiles/HandGest.dir/home/anonxx/pico/pico-sdk/src/rp2_common/pico_double/double_math.c.obj
 .text.dpow_int2
                0x0000000000000000       0x2c CMakeFiles/HandGest.dir/home/anonxx/pico/pico-sdk/src/rp2_common/pico_double/double_math.c.obj
 .text.drem_0   0x0000000000000000      0x130 CMakeFiles/HandGest.dir/home/anonxx/pico/pico-sdk/src/rp2_common/pico_double/double_math.c.obj
 .text.dpow_1   0x0000000000000000      0x27c CMakeFiles/HandGest.dir/home/anonxx/pico/pico-sdk/src/rp2_common/pico_double/double_math.c.obj
 .text.dpowint_0
                0x0000000000000000      0x168 CMakeFiles/HandGest.dir/home/anonxx/pico/pico-sdk/src/rp2_common/pico_double/double_math.c.obj
 .text.dpow_0   0x0000000000000000      0x16c CMakeFiles/HandGest.dir/home/anonxx/pico/pico-sdk/src/rp2_common/pico_double/double_math.c.obj
 .text.__wrap_ldexp
                0x0000000000000000       0x50 CMakeFiles/HandGest.dir/home/anonxx/pico/pico-sdk/src/rp2_common/pico_double/double_math.c.obj
 .text.__wrap_copysign
                0x0000000000000000       0x10 CMakeFiles/HandGest.dir/home/anonxx/pico/pico-sdk/src/rp2_common/pico_double/double_math.c.obj
 .text.__wrap_trunc
                0x0000000000000000       0x60 CMakeFiles/HandGest.dir/home/anonxx/pico/pico-sdk/src/rp2_common/pico_double/double_math.c.obj
 .text.__wrap_round
                0x0000000000000000       0x9c CMakeFiles/HandGest.dir/home/anonxx/pico/pico-sdk/src/rp2_common/pico_double/double_math.c.obj
 .text.__wrap_floor
                0x0000000000000000       0x9c CMakeFiles/HandGest.dir/home/anonxx/pico/pico-sdk/src/rp2_common/pico_double/double_math.c.obj
 .text.__wrap_ceil
                0x0000000000000000       0x9c CMakeFiles/HandGest.dir/home/anonxx/pico/pico-sdk/src/rp2_common/pico_double/double_math.c.obj
 .text.__wrap_asin
                0x0000000000000000       0x60 CMakeFiles/HandGest.dir/home/anonxx/pico/pico-sdk/src/rp2_common/pico_double/double_math.c.obj
 .text.__wrap_acos
                0x0000000000000000       0x5c CMakeFiles/HandGest.dir/home/anonxx/pico/pico-sdk/src/rp2_common/pico_double/double_math.c.obj
 .text.__wrap_atan
                0x0000000000000000       0x40 CMakeFiles/HandGest.dir/home/anonxx/pico/pico-sdk/src/rp2_common/pico_double/double_math.c.obj
 .text.__wrap_sinh
                0x0000000000000000       0x7c CMakeFiles/HandGest.dir/home/anonxx/pico/pico-sdk/src/rp2_common/pico_double/double_math.c.obj
 .text.__wrap_cosh
                0x0000000000000000       0x7c CMakeFiles/HandGest.dir/home/anonxx/pico/pico-sdk/src/rp2_common/pico_double/double_math.c.obj
 .text.__wrap_tanh
                0x0000000000000000       0x90 CMakeFiles/HandGest.dir/home/anonxx/pico/pico-sdk/src/rp2_common/pico_double/double_math.c.obj
 .text.__wrap_asinh
                0x0000000000000000       0xb4 CMakeFiles/HandGest.dir/home/anonxx/pico/pico-sdk/src/rp2_common/pico_double/double_math.c.obj
 .text.__wrap_acosh
                0x0000000000000000       0x78 CMakeFiles/HandGest.dir/home/anonxx/pico/pico-sdk/src/rp2_common/pico_double/double_math.c.obj
 .text.__wrap_atanh
                0x0000000000000000       0x84 CMakeFiles/HandGest.dir/home/anonxx/pico/pico-sdk/src/rp2_common/pico_double/double_math.c.obj
 .text.__wrap_exp2
                0x0000000000000000       0xcc CMakeFiles/HandGest.dir/home/anonxx/pico/pico-sdk/src/rp2_common/pico_double/double_math.c.obj
 .text.__wrap_log2
                0x0000000000000000       0x18 CMakeFiles/HandGest.dir/home/anonxx/pico/pico-sdk/src/rp2_common/pico_double/double_math.c.obj
 .text.__wrap_exp10
                0x0000000000000000       0x14 CMakeFiles/HandGest.dir/home/anonxx/pico/pico-sdk/src/rp2_common/pico_double/double_math.c.obj
 .text.__wrap_log10
                0x0000000000000000       0x18 CMakeFiles/HandGest.dir/home/anonxx/pico/pico-sdk/src/rp2_common/pico_double/double_math.c.obj
 .text.__wrap_expm1
                0x0000000000000000       0x14 CMakeFiles/HandGest.dir/home/anonxx/pico/pico-sdk/src/rp2_common/pico_double/double_math.c.obj
 .text.__wrap_log1p
                0x0000000000000000       0x14 CMakeFiles/HandGest.dir/home/anonxx/pico/pico-sdk/src/rp2_common/pico_double/double_math.c.obj
 .text.__wrap_fma
                0x0000000000000000       0x10 CMakeFiles/HandGest.dir/home/anonxx/pico/pico-sdk/src/rp2_common/pico_double/double_math.c.obj
 .text.__wrap_powint
                0x0000000000000000       0xbc CMakeFiles/HandGest.dir/home/anonxx/pico/pico-sdk/src/rp2_common/pico_double/double_math.c.obj
 .text.__wrap_pow
                0x0000000000000000      0x394 CMakeFiles/HandGest.dir/home/anonxx/pico/pico-sdk/src/rp2_common/pico_double/double_math.c.obj
 .text.__wrap_hypot
                0x0000000000000000      0x24c CMakeFiles/HandGest.dir/home/anonxx/pico/pico-sdk/src/rp2_common/pico_double/double_math.c.obj
 .text.__wrap_cbrt
                0x0000000000000000       0xe4 CMakeFiles/HandGest.dir/home/anonxx/pico/pico-sdk/src/rp2_common/pico_double/double_math.c.obj
 .text.__wrap_fmod
                0x0000000000000000       0xa8 CMakeFiles/HandGest.dir/home/anonxx/pico/pico-sdk/src/rp2_common/pico_double/double_math.c.obj
 .text.__wrap_remquo
                0x0000000000000000      0x16c CMakeFiles/HandGest.dir/home/anonxx/pico/pico-sdk/src/rp2_common/pico_double/double_math.c.obj
 .text.__wrap_drem
                0x0000000000000000       0x10 CMakeFiles/HandGest.dir/home/anonxx/pico/pico-sdk/src/rp2_common/pico_double/double_math.c.obj
 .text.__wrap_remainder
                0x0000000000000000       0x10 CMakeFiles/HandGest.dir/home/anonxx/pico/pico-sdk/src/rp2_common/pico_double/double_math.c.obj
 .debug_info    0x0000000000000000     0x34ca CMakeFiles/HandGest.dir/home/anonxx/pico/pico-sdk/src/rp2_common/pico_double/double_math.c.obj
 .debug_abbrev  0x0000000000000000      0x472 CMakeFiles/HandGest.dir/home/anonxx/pico/pico-sdk/src/rp2_common/pico_double/double_math.c.obj
 .debug_loc     0x0000000000000000     0x5287 CMakeFiles/HandGest.dir/home/anonxx/pico/pico-sdk/src/rp2_common/pico_double/double_math.c.obj
 .debug_aranges
                0x0000000000000000      0x130 CMakeFiles/HandGest.dir/home/anonxx/pico/pico-sdk/src/rp2_common/pico_double/double_math.c.obj
 .debug_ranges  0x0000000000000000      0x570 CMakeFiles/HandGest.dir/home/anonxx/pico/pico-sdk/src/rp2_common/pico_double/double_math.c.obj
 .debug_line    0x0000000000000000     0x206c CMakeFiles/HandGest.dir/home/anonxx/pico/pico-sdk/src/rp2_common/pico_double/double_math.c.obj
 .debug_str     0x0000000000000000      0x869 CMakeFiles/HandGest.dir/home/anonxx/pico/pico-sdk/src/rp2_common/pico_double/double_math.c.obj
 .comment       0x0000000000000000       0x5a CMakeFiles/HandGest.dir/home/anonxx/pico/pico-sdk/src/rp2_common/pico_double/double_math.c.obj
 .debug_frame   0x0000000000000000      0x440 CMakeFiles/HandGest.dir/home/anonxx/pico/pico-sdk/src/rp2_common/pico_double/double_math.c.obj
 .ARM.attributes
                0x0000000000000000       0x2c CMakeFiles/HandGest.dir/home/anonxx/pico/pico-sdk/src/rp2_common/pico_double/double_math.c.obj
 .text          0x0000000000000000        0x0 CMakeFiles/HandGest.dir/home/anonxx/pico/pico-sdk/src/rp2_common/pico_double/double_v1_rom_shim.S.obj
 .data          0x0000000000000000        0x0 CMakeFiles/HandGest.dir/home/anonxx/pico/pico-sdk/src/rp2_common/pico_double/double_v1_rom_shim.S.obj
 .bss           0x0000000000000000        0x0 CMakeFiles/HandGest.dir/home/anonxx/pico/pico-sdk/src/rp2_common/pico_double/double_v1_rom_shim.S.obj
 .text.dsqrt_shim
                0x0000000000000000      0x1a8 CMakeFiles/HandGest.dir/home/anonxx/pico/pico-sdk/src/rp2_common/pico_double/double_v1_rom_shim.S.obj
 .text.dcordic_vec_step
                0x0000000000000000        0xe CMakeFiles/HandGest.dir/home/anonxx/pico/pico-sdk/src/rp2_common/pico_double/double_v1_rom_shim.S.obj
 .text.double2int_shim
                0x0000000000000000        0xe CMakeFiles/HandGest.dir/home/anonxx/pico/pico-sdk/src/rp2_common/pico_double/double_v1_rom_shim.S.obj
 .text.double2int64_shim
                0x0000000000000000       0x1a CMakeFiles/HandGest.dir/home/anonxx/pico/pico-sdk/src/rp2_common/pico_double/double_v1_rom_shim.S.obj
 .text.double2float_shim
                0x0000000000000000       0x5c CMakeFiles/HandGest.dir/home/anonxx/pico/pico-sdk/src/rp2_common/pico_double/double_v1_rom_shim.S.obj
 .text.x2double_shims
                0x0000000000000000       0x90 CMakeFiles/HandGest.dir/home/anonxx/pico/pico-sdk/src/rp2_common/pico_double/double_v1_rom_shim.S.obj
 .text.dreduce  0x0000000000000000       0x82 CMakeFiles/HandGest.dir/home/anonxx/pico/pico-sdk/src/rp2_common/pico_double/double_v1_rom_shim.S.obj
 .text.dtan_shim
                0x0000000000000000       0x20 CMakeFiles/HandGest.dir/home/anonxx/pico/pico-sdk/src/rp2_common/pico_double/double_v1_rom_shim.S.obj
 .text.dcos_shim
                0x0000000000000000       0x10 CMakeFiles/HandGest.dir/home/anonxx/pico/pico-sdk/src/rp2_common/pico_double/double_v1_rom_shim.S.obj
 .text.dsin_shim
                0x0000000000000000       0x14 CMakeFiles/HandGest.dir/home/anonxx/pico/pico-sdk/src/rp2_common/pico_double/double_v1_rom_shim.S.obj
 .text.dsincos_shim
                0x0000000000000000       0x20 CMakeFiles/HandGest.dir/home/anonxx/pico/pico-sdk/src/rp2_common/pico_double/double_v1_rom_shim.S.obj
 .text.dtrig_guts
                0x0000000000000000      0x2ec CMakeFiles/HandGest.dir/home/anonxx/pico/pico-sdk/src/rp2_common/pico_double/double_v1_rom_shim.S.obj
 .text.dexp_guts
                0x0000000000000000      0x268 CMakeFiles/HandGest.dir/home/anonxx/pico/pico-sdk/src/rp2_common/pico_double/double_v1_rom_shim.S.obj
 .text          0x0000000000000000        0x0 CMakeFiles/HandGest.dir/home/anonxx/pico/pico-sdk/src/rp2_common/pico_int64_ops/pico_int64_ops_aeabi.S.obj
 .data          0x0000000000000000        0x0 CMakeFiles/HandGest.dir/home/anonxx/pico/pico-sdk/src/rp2_common/pico_int64_ops/pico_int64_ops_aeabi.S.obj
 .bss           0x0000000000000000        0x0 CMakeFiles/HandGest.dir/home/anonxx/pico/pico-sdk/src/rp2_common/pico_int64_ops/pico_int64_ops_aeabi.S.obj
 .text          0x0000000000000000        0x0 CMakeFiles/HandGest.dir/home/anonxx/pico/pico-sdk/src/rp2_common/pico_float/float_aeabi.S.obj
 .data          0x0000000000000000        0x0 CMakeFiles/HandGest.dir/home/anonxx/pico/pico-sdk/src/rp2_common/pico_float/float_aeabi.S.obj
 .bss           0x0000000000000000        0x0 CMakeFiles/HandGest.dir/home/anonxx/pico/pico-sdk/src/rp2_common/pico_float/float_aeabi.S.obj
 .text.__wrap___aeabi_farithmetic
                0x0000000000000000       0x34 CMakeFiles/HandGest.dir/home/anonxx/pico/pico-sdk/src/rp2_common/pico_float/float_aeabi.S.obj
 .text.__wrap___aeabi_cfcmple
                0x0000000000000000       0x50 CMakeFiles/HandGest.dir/home/anonxx/pico/pico-sdk/src/rp2_common/pico_float/float_aeabi.S.obj
 .text.__wrap___aeabi_fcmpeq
                0x0000000000000000       0x10 CMakeFiles/HandGest.dir/home/anonxx/pico/pico-sdk/src/rp2_common/pico_float/float_aeabi.S.obj
 .text.__wrap___aeabi_fcmplt
                0x0000000000000000        0xc CMakeFiles/HandGest.dir/home/anonxx/pico/pico-sdk/src/rp2_common/pico_float/float_aeabi.S.obj
 .text.__wrap___aeabi_fcmple
                0x0000000000000000       0x10 CMakeFiles/HandGest.dir/home/anonxx/pico/pico-sdk/src/rp2_common/pico_float/float_aeabi.S.obj
 .text.__wrap___aeabi_fcmpge
                0x0000000000000000       0x10 CMakeFiles/HandGest.dir/home/anonxx/pico/pico-sdk/src/rp2_common/pico_float/float_aeabi.S.obj
 .text.__wrap___aeabi_fcmpgt
                0x0000000000000000        0xa CMakeFiles/HandGest.dir/home/anonxx/pico/pico-sdk/src/rp2_common/pico_float/float_aeabi.S.obj
 .text.__wrap___aeabi_fcmpun
                0x0000000000000000       0x18 CMakeFiles/HandGest.dir/home/anonxx/pico/pico-sdk/src/rp2_common/pico_float/float_aeabi.S.obj
 .text.__wrap___aeabi_ui2f
                0x0000000000000000        0xa CMakeFiles/HandGest.dir/home/anonxx/pico/pico-sdk/src/rp2_common/pico_float/float_aeabi.S.obj
 .text.__wrap___aeabi_i2f
                0x0000000000000000       0x44 CMakeFiles/HandGest.dir/home/anonxx/pico/pico-sdk/src/rp2_common/pico_float/float_aeabi.S.obj
 .text.__wrap___aeabi_f2iz
                0x0000000000000000       0x4e CMakeFiles/HandGest.dir/home/anonxx/pico/pico-sdk/src/rp2_common/pico_float/float_aeabi.S.obj
 .text.float2int
                0x0000000000000000       0x14 CMakeFiles/HandGest.dir/home/anonxx/pico/pico-sdk/src/rp2_common/pico_float/float_aeabi.S.obj
 .text.float2fix
                0x0000000000000000       0x14 CMakeFiles/HandGest.dir/home/anonxx/pico/pico-sdk/src/rp2_common/pico_float/float_aeabi.S.obj
 .text.float2ufix
                0x0000000000000000       0x10 CMakeFiles/HandGest.dir/home/anonxx/pico/pico-sdk/src/rp2_common/pico_float/float_aeabi.S.obj
 .text.__wrap___aeabi_f2uiz
                0x0000000000000000       0x10 CMakeFiles/HandGest.dir/home/anonxx/pico/pico-sdk/src/rp2_common/pico_float/float_aeabi.S.obj
 .text.fix2float
                0x0000000000000000       0x10 CMakeFiles/HandGest.dir/home/anonxx/pico/pico-sdk/src/rp2_common/pico_float/float_aeabi.S.obj
 .text.ufix2float
                0x0000000000000000       0x10 CMakeFiles/HandGest.dir/home/anonxx/pico/pico-sdk/src/rp2_common/pico_float/float_aeabi.S.obj
 .text.fix642float
                0x0000000000000000       0x14 CMakeFiles/HandGest.dir/home/anonxx/pico/pico-sdk/src/rp2_common/pico_float/float_aeabi.S.obj
 .text.ufix642float
                0x0000000000000000       0x14 CMakeFiles/HandGest.dir/home/anonxx/pico/pico-sdk/src/rp2_common/pico_float/float_aeabi.S.obj
 .text.__wrap___aeabi_l2f
                0x0000000000000000       0x20 CMakeFiles/HandGest.dir/home/anonxx/pico/pico-sdk/src/rp2_common/pico_float/float_aeabi.S.obj
 .text.__wrap___aeabi_ul2f
                0x0000000000000000       0x20 CMakeFiles/HandGest.dir/home/anonxx/pico/pico-sdk/src/rp2_common/pico_float/float_aeabi.S.obj
 .text.__wrap___aeabi_f2lz
                0x0000000000000000       0x26 CMakeFiles/HandGest.dir/home/anonxx/pico/pico-sdk/src/rp2_common/pico_float/float_aeabi.S.obj
 .text.float2int64
                0x0000000000000000       0x14 CMakeFiles/HandGest.dir/home/anonxx/pico/pico-sdk/src/rp2_common/pico_float/float_aeabi.S.obj
 .text.float2fix64
                0x0000000000000000       0x14 CMakeFiles/HandGest.dir/home/anonxx/pico/pico-sdk/src/rp2_common/pico_float/float_aeabi.S.obj
 .text.__wrap___aeabi_f2ulz
                0x0000000000000000       0x14 CMakeFiles/HandGest.dir/home/anonxx/pico/pico-sdk/src/rp2_common/pico_float/float_aeabi.S.obj
 .text.float2ufix64
                0x0000000000000000       0x14 CMakeFiles/HandGest.dir/home/anonxx/pico/pico-sdk/src/rp2_common/pico_float/float_aeabi.S.obj
 .text.__wrap___aeabi_f2d
                0x0000000000000000       0x14 CMakeFiles/HandGest.dir/home/anonxx/pico/pico-sdk/src/rp2_common/pico_float/float_aeabi.S.obj
 .text.__wrap_srqtf
                0x0000000000000000       0x24 CMakeFiles/HandGest.dir/home/anonxx/pico/pico-sdk/src/rp2_common/pico_float/float_aeabi.S.obj
 .text.__wrap_cosf
                0x0000000000000000       0x28 CMakeFiles/HandGest.dir/home/anonxx/pico/pico-sdk/src/rp2_common/pico_float/float_aeabi.S.obj
 .text.__wrap_sinf
                0x0000000000000000       0x28 CMakeFiles/HandGest.dir/home/anonxx/pico/pico-sdk/src/rp2_common/pico_float/float_aeabi.S.obj
 .text.__wrap_sincosf
                0x0000000000000000       0x30 CMakeFiles/HandGest.dir/home/anonxx/pico/pico-sdk/src/rp2_common/pico_float/float_aeabi.S.obj
 .text.__wrap_tanf
                0x0000000000000000       0x28 CMakeFiles/HandGest.dir/home/anonxx/pico/pico-sdk/src/rp2_common/pico_float/float_aeabi.S.obj
 .text.__wrap_atan2f
                0x0000000000000000       0x14 CMakeFiles/HandGest.dir/home/anonxx/pico/pico-sdk/src/rp2_common/pico_float/float_aeabi.S.obj
 .text.__wrap_expf
                0x0000000000000000       0x10 CMakeFiles/HandGest.dir/home/anonxx/pico/pico-sdk/src/rp2_common/pico_float/float_aeabi.S.obj
 .text.__wrap_logf
                0x0000000000000000       0x10 CMakeFiles/HandGest.dir/home/anonxx/pico/pico-sdk/src/rp2_common/pico_float/float_aeabi.S.obj
 .text          0x0000000000000000        0x0 CMakeFiles/HandGest.dir/home/anonxx/pico/pico-sdk/src/rp2_common/pico_float/float_init_rom.c.obj
 .data          0x0000000000000000        0x0 CMakeFiles/HandGest.dir/home/anonxx/pico/pico-sdk/src/rp2_common/pico_float/float_init_rom.c.obj
 .bss           0x0000000000000000        0x0 CMakeFiles/HandGest.dir/home/anonxx/pico/pico-sdk/src/rp2_common/pico_float/float_init_rom.c.obj
 .text          0x0000000000000000        0x0 CMakeFiles/HandGest.dir/home/anonxx/pico/pico-sdk/src/rp2_common/pico_float/float_math.c.obj
 .data          0x0000000000000000        0x0 CMakeFiles/HandGest.dir/home/anonxx/pico/pico-sdk/src/rp2_common/pico_float/float_math.c.obj
 .bss           0x0000000000000000        0x0 CMakeFiles/HandGest.dir/home/anonxx/pico/pico-sdk/src/rp2_common/pico_float/float_math.c.obj
 .text.fpow_int2
                0x0000000000000000       0x26 CMakeFiles/HandGest.dir/home/anonxx/pico/pico-sdk/src/rp2_common/pico_float/float_math.c.obj
 .text.frem_0   0x0000000000000000       0x80 CMakeFiles/HandGest.dir/home/anonxx/pico/pico-sdk/src/rp2_common/pico_float/float_math.c.obj
 .text.fpow_0   0x0000000000000000      0x11c CMakeFiles/HandGest.dir/home/anonxx/pico/pico-sdk/src/rp2_common/pico_float/float_math.c.obj
 .text.fpowint_0
                0x0000000000000000      0x108 CMakeFiles/HandGest.dir/home/anonxx/pico/pico-sdk/src/rp2_common/pico_float/float_math.c.obj
 .text.__wrap_ldexpf
                0x0000000000000000       0x34 CMakeFiles/HandGest.dir/home/anonxx/pico/pico-sdk/src/rp2_common/pico_float/float_math.c.obj
 .text.__wrap_copysignf
                0x0000000000000000        0xc CMakeFiles/HandGest.dir/home/anonxx/pico/pico-sdk/src/rp2_common/pico_float/float_math.c.obj
 .text.__wrap_truncf
                0x0000000000000000       0x22 CMakeFiles/HandGest.dir/home/anonxx/pico/pico-sdk/src/rp2_common/pico_float/float_math.c.obj
 .text.__wrap_roundf
                0x0000000000000000       0x3e CMakeFiles/HandGest.dir/home/anonxx/pico/pico-sdk/src/rp2_common/pico_float/float_math.c.obj
 .text.__wrap_floorf
                0x0000000000000000       0x48 CMakeFiles/HandGest.dir/home/anonxx/pico/pico-sdk/src/rp2_common/pico_float/float_math.c.obj
 .text.__wrap_ceilf
                0x0000000000000000       0x46 CMakeFiles/HandGest.dir/home/anonxx/pico/pico-sdk/src/rp2_common/pico_float/float_math.c.obj
 .text.__wrap_asinf
                0x0000000000000000       0x42 CMakeFiles/HandGest.dir/home/anonxx/pico/pico-sdk/src/rp2_common/pico_float/float_math.c.obj
 .text.__wrap_acosf
                0x0000000000000000       0x40 CMakeFiles/HandGest.dir/home/anonxx/pico/pico-sdk/src/rp2_common/pico_float/float_math.c.obj
 .text.__wrap_atanf
                0x0000000000000000       0x2c CMakeFiles/HandGest.dir/home/anonxx/pico/pico-sdk/src/rp2_common/pico_float/float_math.c.obj
 .text.__wrap_sinhf
                0x0000000000000000       0x54 CMakeFiles/HandGest.dir/home/anonxx/pico/pico-sdk/src/rp2_common/pico_float/float_math.c.obj
 .text.__wrap_coshf
                0x0000000000000000       0x54 CMakeFiles/HandGest.dir/home/anonxx/pico/pico-sdk/src/rp2_common/pico_float/float_math.c.obj
 .text.__wrap_tanhf
                0x0000000000000000       0x60 CMakeFiles/HandGest.dir/home/anonxx/pico/pico-sdk/src/rp2_common/pico_float/float_math.c.obj
 .text.__wrap_asinhf
                0x0000000000000000       0xb8 CMakeFiles/HandGest.dir/home/anonxx/pico/pico-sdk/src/rp2_common/pico_float/float_math.c.obj
 .text.__wrap_acoshf
                0x0000000000000000       0x74 CMakeFiles/HandGest.dir/home/anonxx/pico/pico-sdk/src/rp2_common/pico_float/float_math.c.obj
 .text.__wrap_atanhf
                0x0000000000000000       0x5c CMakeFiles/HandGest.dir/home/anonxx/pico/pico-sdk/src/rp2_common/pico_float/float_math.c.obj
 .text.__wrap_exp2f
                0x0000000000000000       0x20 CMakeFiles/HandGest.dir/home/anonxx/pico/pico-sdk/src/rp2_common/pico_float/float_math.c.obj
 .text.__wrap_log2f
                0x0000000000000000       0x14 CMakeFiles/HandGest.dir/home/anonxx/pico/pico-sdk/src/rp2_common/pico_float/float_math.c.obj
 .text.__wrap_exp10f
                0x0000000000000000       0x20 CMakeFiles/HandGest.dir/home/anonxx/pico/pico-sdk/src/rp2_common/pico_float/float_math.c.obj
 .text.__wrap_log10f
                0x0000000000000000       0x14 CMakeFiles/HandGest.dir/home/anonxx/pico/pico-sdk/src/rp2_common/pico_float/float_math.c.obj
 .text.__wrap_expm1f
                0x0000000000000000       0x1c CMakeFiles/HandGest.dir/home/anonxx/pico/pico-sdk/src/rp2_common/pico_float/float_math.c.obj
 .text.__wrap_log1pf
                0x0000000000000000       0x1c CMakeFiles/HandGest.dir/home/anonxx/pico/pico-sdk/src/rp2_common/pico_float/float_math.c.obj
 .text.__wrap_fmaf
                0x0000000000000000       0x3c CMakeFiles/HandGest.dir/home/anonxx/pico/pico-sdk/src/rp2_common/pico_float/float_math.c.obj
 .text.__wrap_powintf
                0x0000000000000000       0xa0 CMakeFiles/HandGest.dir/home/anonxx/pico/pico-sdk/src/rp2_common/pico_float/float_math.c.obj
 .text.__wrap_powf
                0x0000000000000000      0x1fc CMakeFiles/HandGest.dir/home/anonxx/pico/pico-sdk/src/rp2_common/pico_float/float_math.c.obj
 .text.__wrap_hypotf
                0x0000000000000000      0x16c CMakeFiles/HandGest.dir/home/anonxx/pico/pico-sdk/src/rp2_common/pico_float/float_math.c.obj
 .text.__wrap_cbrtf
                0x0000000000000000       0xbc CMakeFiles/HandGest.dir/home/anonxx/pico/pico-sdk/src/rp2_common/pico_float/float_math.c.obj
 .text.__wrap_fmodf
                0x0000000000000000       0x62 CMakeFiles/HandGest.dir/home/anonxx/pico/pico-sdk/src/rp2_common/pico_float/float_math.c.obj
 .text.__wrap_remquof
                0x0000000000000000       0xda CMakeFiles/HandGest.dir/home/anonxx/pico/pico-sdk/src/rp2_common/pico_float/float_math.c.obj
 .text.__wrap_dremf
                0x0000000000000000        0xa CMakeFiles/HandGest.dir/home/anonxx/pico/pico-sdk/src/rp2_common/pico_float/float_math.c.obj
 .text.__wrap_remainderf
                0x0000000000000000        0xa CMakeFiles/HandGest.dir/home/anonxx/pico/pico-sdk/src/rp2_common/pico_float/float_math.c.obj
 .debug_info    0x0000000000000000     0x31ea CMakeFiles/HandGest.dir/home/anonxx/pico/pico-sdk/src/rp2_common/pico_float/float_math.c.obj
 .debug_abbrev  0x0000000000000000      0x44c CMakeFiles/HandGest.dir/home/anonxx/pico/pico-sdk/src/rp2_common/pico_float/float_math.c.obj
 .debug_loc     0x0000000000000000     0x4244 CMakeFiles/HandGest.dir/home/anonxx/pico/pico-sdk/src/rp2_common/pico_float/float_math.c.obj
 .debug_aranges
                0x0000000000000000      0x128 CMakeFiles/HandGest.dir/home/anonxx/pico/pico-sdk/src/rp2_common/pico_float/float_math.c.obj
 .debug_ranges  0x0000000000000000      0x4b8 CMakeFiles/HandGest.dir/home/anonxx/pico/pico-sdk/src/rp2_common/pico_float/float_math.c.obj
 .debug_line    0x0000000000000000     0x1c89 CMakeFiles/HandGest.dir/home/anonxx/pico/pico-sdk/src/rp2_common/pico_float/float_math.c.obj
 .debug_str     0x0000000000000000      0x876 CMakeFiles/HandGest.dir/home/anonxx/pico/pico-sdk/src/rp2_common/pico_float/float_math.c.obj
 .comment       0x0000000000000000       0x5a CMakeFiles/HandGest.dir/home/anonxx/pico/pico-sdk/src/rp2_common/pico_float/float_math.c.obj
 .debug_frame   0x0000000000000000      0x3a0 CMakeFiles/HandGest.dir/home/anonxx/pico/pico-sdk/src/rp2_common/pico_float/float_math.c.obj
 .ARM.attributes
                0x0000000000000000       0x2c CMakeFiles/HandGest.dir/home/anonxx/pico/pico-sdk/src/rp2_common/pico_float/float_math.c.obj
 .text          0x0000000000000000        0x0 CMakeFiles/HandGest.dir/home/anonxx/pico/pico-sdk/src/rp2_common/pico_float/float_v1_rom_shim.S.obj
 .data          0x0000000000000000        0x0 CMakeFiles/HandGest.dir/home/anonxx/pico/pico-sdk/src/rp2_common/pico_float/float_v1_rom_shim.S.obj
 .bss           0x0000000000000000        0x0 CMakeFiles/HandGest.dir/home/anonxx/pico/pico-sdk/src/rp2_common/pico_float/float_v1_rom_shim.S.obj
 .text.642float_shims
                0x0000000000000000       0x44 CMakeFiles/HandGest.dir/home/anonxx/pico/pico-sdk/src/rp2_common/pico_float/float_v1_rom_shim.S.obj
 .text.fatan2_shim
                0x0000000000000000       0x88 CMakeFiles/HandGest.dir/home/anonxx/pico/pico-sdk/src/rp2_common/pico_float/float_v1_rom_shim.S.obj
 .text.float232_shims
                0x0000000000000000       0x18 CMakeFiles/HandGest.dir/home/anonxx/pico/pico-sdk/src/rp2_common/pico_float/float_v1_rom_shim.S.obj
 .text.float264_shims
                0x0000000000000000       0x4c CMakeFiles/HandGest.dir/home/anonxx/pico/pico-sdk/src/rp2_common/pico_float/float_v1_rom_shim.S.obj
 .text.d2fix_a_float
                0x0000000000000000       0x5c CMakeFiles/HandGest.dir/home/anonxx/pico/pico-sdk/src/rp2_common/pico_float/float_v1_rom_shim.S.obj
 .text.float2double_shim
                0x0000000000000000       0x30 CMakeFiles/HandGest.dir/home/anonxx/pico/pico-sdk/src/rp2_common/pico_float/float_v1_rom_shim.S.obj
 .text          0x0000000000000000        0x0 CMakeFiles/HandGest.dir/home/anonxx/pico/pico-sdk/src/rp2_common/pico_malloc/pico_malloc.c.obj
 .data          0x0000000000000000        0x0 CMakeFiles/HandGest.dir/home/anonxx/pico/pico-sdk/src/rp2_common/pico_malloc/pico_malloc.c.obj
 .bss           0x0000000000000000        0x0 CMakeFiles/HandGest.dir/home/anonxx/pico/pico-sdk/src/rp2_common/pico_malloc/pico_malloc.c.obj
 .rodata.__wrap_malloc.str1.4
                0x0000000000000000        0xe CMakeFiles/HandGest.dir/home/anonxx/pico/pico-sdk/src/rp2_common/pico_malloc/pico_malloc.c.obj
 .text.__wrap_malloc
                0x0000000000000000       0x24 CMakeFiles/HandGest.dir/home/anonxx/pico/pico-sdk/src/rp2_common/pico_malloc/pico_malloc.c.obj
 .text.__wrap_calloc
                0x0000000000000000       0x24 CMakeFiles/HandGest.dir/home/anonxx/pico/pico-sdk/src/rp2_common/pico_malloc/pico_malloc.c.obj
 .text.__wrap_free
                0x0000000000000000        0x8 CMakeFiles/HandGest.dir/home/anonxx/pico/pico-sdk/src/rp2_common/pico_malloc/pico_malloc.c.obj
 .debug_info    0x0000000000000000      0xb11 CMakeFiles/HandGest.dir/home/anonxx/pico/pico-sdk/src/rp2_common/pico_malloc/pico_malloc.c.obj
 .debug_abbrev  0x0000000000000000      0x2a8 CMakeFiles/HandGest.dir/home/anonxx/pico/pico-sdk/src/rp2_common/pico_malloc/pico_malloc.c.obj
 .debug_loc     0x0000000000000000      0x14c CMakeFiles/HandGest.dir/home/anonxx/pico/pico-sdk/src/rp2_common/pico_malloc/pico_malloc.c.obj
 .debug_aranges
                0x0000000000000000       0x30 CMakeFiles/HandGest.dir/home/anonxx/pico/pico-sdk/src/rp2_common/pico_malloc/pico_malloc.c.obj
 .debug_ranges  0x0000000000000000       0x50 CMakeFiles/HandGest.dir/home/anonxx/pico/pico-sdk/src/rp2_common/pico_malloc/pico_malloc.c.obj
 .debug_line    0x0000000000000000      0x1ec CMakeFiles/HandGest.dir/home/anonxx/pico/pico-sdk/src/rp2_common/pico_malloc/pico_malloc.c.obj
 .debug_str     0x0000000000000000      0x621 CMakeFiles/HandGest.dir/home/anonxx/pico/pico-sdk/src/rp2_common/pico_malloc/pico_malloc.c.obj
 .comment       0x0000000000000000       0x5a CMakeFiles/HandGest.dir/home/anonxx/pico/pico-sdk/src/rp2_common/pico_malloc/pico_malloc.c.obj
 .debug_frame   0x0000000000000000       0x58 CMakeFiles/HandGest.dir/home/anonxx/pico/pico-sdk/src/rp2_common/pico_malloc/pico_malloc.c.obj
 .ARM.attributes
                0x0000000000000000       0x2c CMakeFiles/HandGest.dir/home/anonxx/pico/pico-sdk/src/rp2_common/pico_malloc/pico_malloc.c.obj
 .data          0x0000000000000000        0x0 CMakeFiles/HandGest.dir/home/anonxx/pico/pico-sdk/src/rp2_common/pico_mem_ops/mem_ops_aeabi.S.obj
 .bss           0x0000000000000000        0x0 CMakeFiles/HandGest.dir/home/anonxx/pico/pico-sdk/src/rp2_common/pico_mem_ops/mem_ops_aeabi.S.obj
 .text.aeabi_memset_memcpy
                0x0000000000000000       0x24 CMakeFiles/HandGest.dir/home/anonxx/pico/pico-sdk/src/rp2_common/pico_mem_ops/mem_ops_aeabi.S.obj
 .text          0x0000000000000000        0x0 CMakeFiles/HandGest.dir/home/anonxx/pico/pico-sdk/src/rp2_common/pico_standard_link/crt0.S.obj
 .data          0x0000000000000000        0x0 CMakeFiles/HandGest.dir/home/anonxx/pico/pico-sdk/src/rp2_common/pico_standard_link/crt0.S.obj
 .bss           0x0000000000000000        0x0 CMakeFiles/HandGest.dir/home/anonxx/pico/pico-sdk/src/rp2_common/pico_standard_link/crt0.S.obj
 .text          0x0000000000000000        0x0 CMakeFiles/HandGest.dir/home/anonxx/pico/pico-sdk/src/rp2_common/pico_standard_link/new_delete.cpp.obj
 .data          0x0000000000000000        0x0 CMakeFiles/HandGest.dir/home/anonxx/pico/pico-sdk/src/rp2_common/pico_standard_link/new_delete.cpp.obj
 .bss           0x0000000000000000        0x0 CMakeFiles/HandGest.dir/home/anonxx/pico/pico-sdk/src/rp2_common/pico_standard_link/new_delete.cpp.obj
 .text._Znwj    0x0000000000000000        0x8 CMakeFiles/HandGest.dir/home/anonxx/pico/pico-sdk/src/rp2_common/pico_standard_link/new_delete.cpp.obj
 .text._Znaj    0x0000000000000000        0x8 CMakeFiles/HandGest.dir/home/anonxx/pico/pico-sdk/src/rp2_common/pico_standard_link/new_delete.cpp.obj
 .text._ZdlPvj  0x0000000000000000        0x8 CMakeFiles/HandGest.dir/home/anonxx/pico/pico-sdk/src/rp2_common/pico_standard_link/new_delete.cpp.obj
 .text._ZdlPv   0x0000000000000000        0x8 CMakeFiles/HandGest.dir/home/anonxx/pico/pico-sdk/src/rp2_common/pico_standard_link/new_delete.cpp.obj
 .text._ZdaPv   0x0000000000000000        0x8 CMakeFiles/HandGest.dir/home/anonxx/pico/pico-sdk/src/rp2_common/pico_standard_link/new_delete.cpp.obj
 .debug_info    0x0000000000000000      0xfd5 CMakeFiles/HandGest.dir/home/anonxx/pico/pico-sdk/src/rp2_common/pico_standard_link/new_delete.cpp.obj
 .debug_abbrev  0x0000000000000000      0x2f5 CMakeFiles/HandGest.dir/home/anonxx/pico/pico-sdk/src/rp2_common/pico_standard_link/new_delete.cpp.obj
 .debug_loc     0x0000000000000000       0xde CMakeFiles/HandGest.dir/home/anonxx/pico/pico-sdk/src/rp2_common/pico_standard_link/new_delete.cpp.obj
 .debug_aranges
                0x0000000000000000       0x40 CMakeFiles/HandGest.dir/home/anonxx/pico/pico-sdk/src/rp2_common/pico_standard_link/new_delete.cpp.obj
 .debug_ranges  0x0000000000000000       0x30 CMakeFiles/HandGest.dir/home/anonxx/pico/pico-sdk/src/rp2_common/pico_standard_link/new_delete.cpp.obj
 .debug_line    0x0000000000000000      0x217 CMakeFiles/HandGest.dir/home/anonxx/pico/pico-sdk/src/rp2_common/pico_standard_link/new_delete.cpp.obj
 .debug_str     0x0000000000000000      0x7a2 CMakeFiles/HandGest.dir/home/anonxx/pico/pico-sdk/src/rp2_common/pico_standard_link/new_delete.cpp.obj
 .comment       0x0000000000000000       0x5a CMakeFiles/HandGest.dir/home/anonxx/pico/pico-sdk/src/rp2_common/pico_standard_link/new_delete.cpp.obj
 .debug_frame   0x0000000000000000       0x88 CMakeFiles/HandGest.dir/home/anonxx/pico/pico-sdk/src/rp2_common/pico_standard_link/new_delete.cpp.obj
 .ARM.attributes
                0x0000000000000000       0x2c CMakeFiles/HandGest.dir/home/anonxx/pico/pico-sdk/src/rp2_common/pico_standard_link/new_delete.cpp.obj
 .text          0x0000000000000000        0x0 CMakeFiles/HandGest.dir/home/anonxx/pico/pico-sdk/src/rp2_common/pico_standard_link/binary_info.c.obj
 .data          0x0000000000000000        0x0 CMakeFiles/HandGest.dir/home/anonxx/pico/pico-sdk/src/rp2_common/pico_standard_link/binary_info.c.obj
 .bss           0x0000000000000000        0x0 CMakeFiles/HandGest.dir/home/anonxx/pico/pico-sdk/src/rp2_common/pico_standard_link/binary_info.c.obj
 .text          0x0000000000000000        0x0 CMakeFiles/HandGest.dir/home/anonxx/pico/pico-sdk/src/rp2_common/pico_stdio/stdio.c.obj
 .data          0x0000000000000000        0x0 CMakeFiles/HandGest.dir/home/anonxx/pico/pico-sdk/src/rp2_common/pico_stdio/stdio.c.obj
 .bss           0x0000000000000000        0x0 CMakeFiles/HandGest.dir/home/anonxx/pico/pico-sdk/src/rp2_common/pico_stdio/stdio.c.obj
 .text.stdio_get_until
                0x0000000000000000       0x78 CMakeFiles/HandGest.dir/home/anonxx/pico/pico-sdk/src/rp2_common/pico_stdio/stdio.c.obj
 .text.__wrap_putchar
                0x0000000000000000       0x1a CMakeFiles/HandGest.dir/home/anonxx/pico/pico-sdk/src/rp2_common/pico_stdio/stdio.c.obj
 .text._read    0x0000000000000000       0x24 CMakeFiles/HandGest.dir/home/anonxx/pico/pico-sdk/src/rp2_common/pico_stdio/stdio.c.obj
 .text._write   0x0000000000000000       0x1e CMakeFiles/HandGest.dir/home/anonxx/pico/pico-sdk/src/rp2_common/pico_stdio/stdio.c.obj
 .text.__wrap_getchar
                0x0000000000000000       0x28 CMakeFiles/HandGest.dir/home/anonxx/pico/pico-sdk/src/rp2_common/pico_stdio/stdio.c.obj
 .rodata.getchar_timeout_us.str1.4
                0x0000000000000000       0xa5 CMakeFiles/HandGest.dir/home/anonxx/pico/pico-sdk/src/rp2_common/pico_stdio/stdio.c.obj
 .text.getchar_timeout_us
                0x0000000000000000       0x80 CMakeFiles/HandGest.dir/home/anonxx/pico/pico-sdk/src/rp2_common/pico_stdio/stdio.c.obj
 .text.stdio_filter_driver
                0x0000000000000000        0xc CMakeFiles/HandGest.dir/home/anonxx/pico/pico-sdk/src/rp2_common/pico_stdio/stdio.c.obj
 .text.stdio_set_translate_crlf
                0x0000000000000000       0x10 CMakeFiles/HandGest.dir/home/anonxx/pico/pico-sdk/src/rp2_common/pico_stdio/stdio.c.obj
 .rodata.__func__.5424
                0x0000000000000000       0x15 CMakeFiles/HandGest.dir/home/anonxx/pico/pico-sdk/src/rp2_common/pico_stdio/stdio.c.obj
 .rodata.__func__.6100
                0x0000000000000000       0x13 CMakeFiles/HandGest.dir/home/anonxx/pico/pico-sdk/src/rp2_common/pico_stdio/stdio.c.obj
 .text          0x0000000000000000        0x0 CMakeFiles/HandGest.dir/home/anonxx/pico/pico-sdk/src/rp2_common/pico_stdio_uart/stdio_uart.c.obj
 .data          0x0000000000000000        0x0 CMakeFiles/HandGest.dir/home/anonxx/pico/pico-sdk/src/rp2_common/pico_stdio_uart/stdio_uart.c.obj
 .bss           0x0000000000000000        0x0 CMakeFiles/HandGest.dir/home/anonxx/pico/pico-sdk/src/rp2_common/pico_stdio_uart/stdio_uart.c.obj
 .text.stdout_uart_init
                0x0000000000000000       0x28 CMakeFiles/HandGest.dir/home/anonxx/pico/pico-sdk/src/rp2_common/pico_stdio_uart/stdio_uart.c.obj
 .text.stdin_uart_init
                0x0000000000000000       0x28 CMakeFiles/HandGest.dir/home/anonxx/pico/pico-sdk/src/rp2_common/pico_stdio_uart/stdio_uart.c.obj
 .binary_info.__bi_ptr49
                0x0000000000000000        0x4 CMakeFiles/HandGest.dir/home/anonxx/pico/pico-sdk/src/rp2_common/pico_stdio_uart/stdio_uart.c.obj
 .binary_info.__bi_ptr53
                0x0000000000000000        0x4 CMakeFiles/HandGest.dir/home/anonxx/pico/pico-sdk/src/rp2_common/pico_stdio_uart/stdio_uart.c.obj
 .binary_info.__bi_ptr61
                0x0000000000000000        0x4 CMakeFiles/HandGest.dir/home/anonxx/pico/pico-sdk/src/rp2_common/pico_stdio_uart/stdio_uart.c.obj
 .binary_info.__bi_ptr65
                0x0000000000000000        0x4 CMakeFiles/HandGest.dir/home/anonxx/pico/pico-sdk/src/rp2_common/pico_stdio_uart/stdio_uart.c.obj
 .rodata.__bi_49.4716
                0x0000000000000000        0x8 CMakeFiles/HandGest.dir/home/anonxx/pico/pico-sdk/src/rp2_common/pico_stdio_uart/stdio_uart.c.obj
 .rodata.__bi_53.4720
                0x0000000000000000        0xc CMakeFiles/HandGest.dir/home/anonxx/pico/pico-sdk/src/rp2_common/pico_stdio_uart/stdio_uart.c.obj
 .rodata.__bi_61.4726
                0x0000000000000000        0x8 CMakeFiles/HandGest.dir/home/anonxx/pico/pico-sdk/src/rp2_common/pico_stdio_uart/stdio_uart.c.obj
 .rodata.__bi_65.4730
                0x0000000000000000        0xc CMakeFiles/HandGest.dir/home/anonxx/pico/pico-sdk/src/rp2_common/pico_stdio_uart/stdio_uart.c.obj
 .text          0x0000000000000000        0x0 CMakeFiles/HandGest.dir/home/anonxx/pico/pico-sdk/src/rp2_common/pico_stdio_usb/reset_interface.c.obj
 .data          0x0000000000000000        0x0 CMakeFiles/HandGest.dir/home/anonxx/pico/pico-sdk/src/rp2_common/pico_stdio_usb/reset_interface.c.obj
 .bss           0x0000000000000000        0x0 CMakeFiles/HandGest.dir/home/anonxx/pico/pico-sdk/src/rp2_common/pico_stdio_usb/reset_interface.c.obj
 .text          0x0000000000000000        0x0 CMakeFiles/HandGest.dir/home/anonxx/pico/pico-sdk/src/rp2_common/pico_stdio_usb/stdio_usb.c.obj
 .data          0x0000000000000000        0x0 CMakeFiles/HandGest.dir/home/anonxx/pico/pico-sdk/src/rp2_common/pico_stdio_usb/stdio_usb.c.obj
 .bss           0x0000000000000000        0x0 CMakeFiles/HandGest.dir/home/anonxx/pico/pico-sdk/src/rp2_common/pico_stdio_usb/stdio_usb.c.obj
 .text          0x0000000000000000        0x0 CMakeFiles/HandGest.dir/home/anonxx/pico/pico-sdk/src/rp2_common/pico_stdio_usb/stdio_usb_descriptors.c.obj
 .data          0x0000000000000000        0x0 CMakeFiles/HandGest.dir/home/anonxx/pico/pico-sdk/src/rp2_common/pico_stdio_usb/stdio_usb_descriptors.c.obj
 .bss           0x0000000000000000        0x0 CMakeFiles/HandGest.dir/home/anonxx/pico/pico-sdk/src/rp2_common/pico_stdio_usb/stdio_usb_descriptors.c.obj
 .text          0x0000000000000000        0x0 CMakeFiles/HandGest.dir/home/anonxx/pico/pico-sdk/lib/tinyusb/src/portable/raspberrypi/rp2040/dcd_rp2040.c.obj
 .data          0x0000000000000000        0x0 CMakeFiles/HandGest.dir/home/anonxx/pico/pico-sdk/lib/tinyusb/src/portable/raspberrypi/rp2040/dcd_rp2040.c.obj
 .bss           0x0000000000000000        0x0 CMakeFiles/HandGest.dir/home/anonxx/pico/pico-sdk/lib/tinyusb/src/portable/raspberrypi/rp2040/dcd_rp2040.c.obj
 .text.dcd_int_disable
                0x0000000000000000       0x2c CMakeFiles/HandGest.dir/home/anonxx/pico/pico-sdk/lib/tinyusb/src/portable/raspberrypi/rp2040/dcd_rp2040.c.obj
 .rodata.dcd_remote_wakeup.str1.4
                0x0000000000000000       0x16 CMakeFiles/HandGest.dir/home/anonxx/pico/pico-sdk/lib/tinyusb/src/portable/raspberrypi/rp2040/dcd_rp2040.c.obj
 .text.dcd_remote_wakeup
                0x0000000000000000       0x10 CMakeFiles/HandGest.dir/home/anonxx/pico/pico-sdk/lib/tinyusb/src/portable/raspberrypi/rp2040/dcd_rp2040.c.obj
 .text.dcd_disconnect
                0x0000000000000000       0x30 CMakeFiles/HandGest.dir/home/anonxx/pico/pico-sdk/lib/tinyusb/src/portable/raspberrypi/rp2040/dcd_rp2040.c.obj
 .text.dcd_edpt_close
                0x0000000000000000        0x2 CMakeFiles/HandGest.dir/home/anonxx/pico/pico-sdk/lib/tinyusb/src/portable/raspberrypi/rp2040/dcd_rp2040.c.obj
 .rodata.__func__.6853
                0x0000000000000000       0x10 CMakeFiles/HandGest.dir/home/anonxx/pico/pico-sdk/lib/tinyusb/src/portable/raspberrypi/rp2040/dcd_rp2040.c.obj
 .rodata.__func__.6866
                0x0000000000000000        0xf CMakeFiles/HandGest.dir/home/anonxx/pico/pico-sdk/lib/tinyusb/src/portable/raspberrypi/rp2040/dcd_rp2040.c.obj
 .text          0x0000000000000000        0x0 CMakeFiles/HandGest.dir/home/anonxx/pico/pico-sdk/lib/tinyusb/src/portable/raspberrypi/rp2040/rp2040_usb.c.obj
 .data          0x0000000000000000        0x0 CMakeFiles/HandGest.dir/home/anonxx/pico/pico-sdk/lib/tinyusb/src/portable/raspberrypi/rp2040/rp2040_usb.c.obj
 .bss           0x0000000000000000        0x0 CMakeFiles/HandGest.dir/home/anonxx/pico/pico-sdk/lib/tinyusb/src/portable/raspberrypi/rp2040/rp2040_usb.c.obj
 .text          0x0000000000000000        0x0 CMakeFiles/HandGest.dir/home/anonxx/pico/pico-sdk/lib/tinyusb/src/device/usbd.c.obj
 .data          0x0000000000000000        0x0 CMakeFiles/HandGest.dir/home/anonxx/pico/pico-sdk/lib/tinyusb/src/device/usbd.c.obj
 .bss           0x0000000000000000        0x0 CMakeFiles/HandGest.dir/home/anonxx/pico/pico-sdk/lib/tinyusb/src/device/usbd.c.obj
 .text.tud_speed_get
                0x0000000000000000        0xc CMakeFiles/HandGest.dir/home/anonxx/pico/pico-sdk/lib/tinyusb/src/device/usbd.c.obj
 .text.tud_remote_wakeup
                0x0000000000000000       0x2c CMakeFiles/HandGest.dir/home/anonxx/pico/pico-sdk/lib/tinyusb/src/device/usbd.c.obj
 .text.tud_disconnect
                0x0000000000000000       0x1c CMakeFiles/HandGest.dir/home/anonxx/pico/pico-sdk/lib/tinyusb/src/device/usbd.c.obj
 .text.tud_connect
                0x0000000000000000       0x1c CMakeFiles/HandGest.dir/home/anonxx/pico/pico-sdk/lib/tinyusb/src/device/usbd.c.obj
 .text.tud_task_event_ready
                0x0000000000000000       0x20 CMakeFiles/HandGest.dir/home/anonxx/pico/pico-sdk/lib/tinyusb/src/device/usbd.c.obj
 .text.dcd_event_bus_reset
                0x0000000000000000       0x2a CMakeFiles/HandGest.dir/home/anonxx/pico/pico-sdk/lib/tinyusb/src/device/usbd.c.obj
 .text.usbd_defer_func
                0x0000000000000000       0x1e CMakeFiles/HandGest.dir/home/anonxx/pico/pico-sdk/lib/tinyusb/src/device/usbd.c.obj
 .text.usbd_edpt_busy
                0x0000000000000000       0x1c CMakeFiles/HandGest.dir/home/anonxx/pico/pico-sdk/lib/tinyusb/src/device/usbd.c.obj
 .text.usbd_edpt_close
                0x0000000000000000       0x2c CMakeFiles/HandGest.dir/home/anonxx/pico/pico-sdk/lib/tinyusb/src/device/usbd.c.obj
 .rodata.__func__.7406
                0x0000000000000000       0x10 CMakeFiles/HandGest.dir/home/anonxx/pico/pico-sdk/lib/tinyusb/src/device/usbd.c.obj
 .text          0x0000000000000000        0x0 CMakeFiles/HandGest.dir/home/anonxx/pico/pico-sdk/lib/tinyusb/src/device/usbd_control.c.obj
 .data          0x0000000000000000        0x0 CMakeFiles/HandGest.dir/home/anonxx/pico/pico-sdk/lib/tinyusb/src/device/usbd_control.c.obj
 .bss           0x0000000000000000        0x0 CMakeFiles/HandGest.dir/home/anonxx/pico/pico-sdk/lib/tinyusb/src/device/usbd_control.c.obj
 .text          0x0000000000000000        0x0 CMakeFiles/HandGest.dir/home/anonxx/pico/pico-sdk/lib/tinyusb/src/class/audio/audio_device.c.obj
 .data          0x0000000000000000        0x0 CMakeFiles/HandGest.dir/home/anonxx/pico/pico-sdk/lib/tinyusb/src/class/audio/audio_device.c.obj
 .bss           0x0000000000000000        0x0 CMakeFiles/HandGest.dir/home/anonxx/pico/pico-sdk/lib/tinyusb/src/class/audio/audio_device.c.obj
 .debug_info    0x0000000000000000       0x88 CMakeFiles/HandGest.dir/home/anonxx/pico/pico-sdk/lib/tinyusb/src/class/audio/audio_device.c.obj
 .debug_abbrev  0x0000000000000000       0x51 CMakeFiles/HandGest.dir/home/anonxx/pico/pico-sdk/lib/tinyusb/src/class/audio/audio_device.c.obj
 .debug_aranges
                0x0000000000000000       0x18 CMakeFiles/HandGest.dir/home/anonxx/pico/pico-sdk/lib/tinyusb/src/class/audio/audio_device.c.obj
 .debug_line    0x0000000000000000       0xbf CMakeFiles/HandGest.dir/home/anonxx/pico/pico-sdk/lib/tinyusb/src/class/audio/audio_device.c.obj
 .debug_str     0x0000000000000000      0x1d5 CMakeFiles/HandGest.dir/home/anonxx/pico/pico-sdk/lib/tinyusb/src/class/audio/audio_device.c.obj
 .comment       0x0000000000000000       0x5a CMakeFiles/HandGest.dir/home/anonxx/pico/pico-sdk/lib/tinyusb/src/class/audio/audio_device.c.obj
 .ARM.attributes
                0x0000000000000000       0x32 CMakeFiles/HandGest.dir/home/anonxx/pico/pico-sdk/lib/tinyusb/src/class/audio/audio_device.c.obj
 .text          0x0000000000000000        0x0 CMakeFiles/HandGest.dir/home/anonxx/pico/pico-sdk/lib/tinyusb/src/class/cdc/cdc_device.c.obj
 .data          0x0000000000000000        0x0 CMakeFiles/HandGest.dir/home/anonxx/pico/pico-sdk/lib/tinyusb/src/class/cdc/cdc_device.c.obj
 .bss           0x0000000000000000        0x0 CMakeFiles/HandGest.dir/home/anonxx/pico/pico-sdk/lib/tinyusb/src/class/cdc/cdc_device.c.obj
 .text.tud_cdc_n_get_line_state
                0x0000000000000000       0x18 CMakeFiles/HandGest.dir/home/anonxx/pico/pico-sdk/lib/tinyusb/src/class/cdc/cdc_device.c.obj
 .text.tud_cdc_n_get_line_coding
                0x0000000000000000       0x24 CMakeFiles/HandGest.dir/home/anonxx/pico/pico-sdk/lib/tinyusb/src/class/cdc/cdc_device.c.obj
 .text.tud_cdc_n_set_wanted_char
                0x0000000000000000       0x18 CMakeFiles/HandGest.dir/home/anonxx/pico/pico-sdk/lib/tinyusb/src/class/cdc/cdc_device.c.obj
 .text.tud_cdc_n_peek
                0x0000000000000000       0x20 CMakeFiles/HandGest.dir/home/anonxx/pico/pico-sdk/lib/tinyusb/src/class/cdc/cdc_device.c.obj
 .text.tud_cdc_n_read_flush
                0x0000000000000000       0x2c CMakeFiles/HandGest.dir/home/anonxx/pico/pico-sdk/lib/tinyusb/src/class/cdc/cdc_device.c.obj
 .text          0x0000000000000000        0x0 CMakeFiles/HandGest.dir/home/anonxx/pico/pico-sdk/lib/tinyusb/src/class/dfu/dfu_rt_device.c.obj
 .data          0x0000000000000000        0x0 CMakeFiles/HandGest.dir/home/anonxx/pico/pico-sdk/lib/tinyusb/src/class/dfu/dfu_rt_device.c.obj
 .bss           0x0000000000000000        0x0 CMakeFiles/HandGest.dir/home/anonxx/pico/pico-sdk/lib/tinyusb/src/class/dfu/dfu_rt_device.c.obj
 .debug_info    0x0000000000000000       0x88 CMakeFiles/HandGest.dir/home/anonxx/pico/pico-sdk/lib/tinyusb/src/class/dfu/dfu_rt_device.c.obj
 .debug_abbrev  0x0000000000000000       0x51 CMakeFiles/HandGest.dir/home/anonxx/pico/pico-sdk/lib/tinyusb/src/class/dfu/dfu_rt_device.c.obj
 .debug_aranges
                0x0000000000000000       0x18 CMakeFiles/HandGest.dir/home/anonxx/pico/pico-sdk/lib/tinyusb/src/class/dfu/dfu_rt_device.c.obj
 .debug_line    0x0000000000000000       0xbf CMakeFiles/HandGest.dir/home/anonxx/pico/pico-sdk/lib/tinyusb/src/class/dfu/dfu_rt_device.c.obj
 .debug_str     0x0000000000000000      0x1d4 CMakeFiles/HandGest.dir/home/anonxx/pico/pico-sdk/lib/tinyusb/src/class/dfu/dfu_rt_device.c.obj
 .comment       0x0000000000000000       0x5a CMakeFiles/HandGest.dir/home/anonxx/pico/pico-sdk/lib/tinyusb/src/class/dfu/dfu_rt_device.c.obj
 .ARM.attributes
                0x0000000000000000       0x32 CMakeFiles/HandGest.dir/home/anonxx/pico/pico-sdk/lib/tinyusb/src/class/dfu/dfu_rt_device.c.obj
 .text          0x0000000000000000        0x0 CMakeFiles/HandGest.dir/home/anonxx/pico/pico-sdk/lib/tinyusb/src/class/hid/hid_device.c.obj
 .data          0x0000000000000000        0x0 CMakeFiles/HandGest.dir/home/anonxx/pico/pico-sdk/lib/tinyusb/src/class/hid/hid_device.c.obj
 .bss           0x0000000000000000        0x0 CMakeFiles/HandGest.dir/home/anonxx/pico/pico-sdk/lib/tinyusb/src/class/hid/hid_device.c.obj
 .debug_info    0x0000000000000000       0x88 CMakeFiles/HandGest.dir/home/anonxx/pico/pico-sdk/lib/tinyusb/src/class/hid/hid_device.c.obj
 .debug_abbrev  0x0000000000000000       0x51 CMakeFiles/HandGest.dir/home/anonxx/pico/pico-sdk/lib/tinyusb/src/class/hid/hid_device.c.obj
 .debug_aranges
                0x0000000000000000       0x18 CMakeFiles/HandGest.dir/home/anonxx/pico/pico-sdk/lib/tinyusb/src/class/hid/hid_device.c.obj
 .debug_line    0x0000000000000000       0xbf CMakeFiles/HandGest.dir/home/anonxx/pico/pico-sdk/lib/tinyusb/src/class/hid/hid_device.c.obj
 .debug_str     0x0000000000000000      0x1d1 CMakeFiles/HandGest.dir/home/anonxx/pico/pico-sdk/lib/tinyusb/src/class/hid/hid_device.c.obj
 .comment       0x0000000000000000       0x5a CMakeFiles/HandGest.dir/home/anonxx/pico/pico-sdk/lib/tinyusb/src/class/hid/hid_device.c.obj
 .ARM.attributes
                0x0000000000000000       0x32 CMakeFiles/HandGest.dir/home/anonxx/pico/pico-sdk/lib/tinyusb/src/class/hid/hid_device.c.obj
 .text          0x0000000000000000        0x0 CMakeFiles/HandGest.dir/home/anonxx/pico/pico-sdk/lib/tinyusb/src/class/midi/midi_device.c.obj
 .data          0x0000000000000000        0x0 CMakeFiles/HandGest.dir/home/anonxx/pico/pico-sdk/lib/tinyusb/src/class/midi/midi_device.c.obj
 .bss           0x0000000000000000        0x0 CMakeFiles/HandGest.dir/home/anonxx/pico/pico-sdk/lib/tinyusb/src/class/midi/midi_device.c.obj
 .debug_info    0x0000000000000000       0x88 CMakeFiles/HandGest.dir/home/anonxx/pico/pico-sdk/lib/tinyusb/src/class/midi/midi_device.c.obj
 .debug_abbrev  0x0000000000000000       0x51 CMakeFiles/HandGest.dir/home/anonxx/pico/pico-sdk/lib/tinyusb/src/class/midi/midi_device.c.obj
 .debug_aranges
                0x0000000000000000       0x18 CMakeFiles/HandGest.dir/home/anonxx/pico/pico-sdk/lib/tinyusb/src/class/midi/midi_device.c.obj
 .debug_line    0x0000000000000000       0xbf CMakeFiles/HandGest.dir/home/anonxx/pico/pico-sdk/lib/tinyusb/src/class/midi/midi_device.c.obj
 .debug_str     0x0000000000000000      0x1d3 CMakeFiles/HandGest.dir/home/anonxx/pico/pico-sdk/lib/tinyusb/src/class/midi/midi_device.c.obj
 .comment       0x0000000000000000       0x5a CMakeFiles/HandGest.dir/home/anonxx/pico/pico-sdk/lib/tinyusb/src/class/midi/midi_device.c.obj
 .ARM.attributes
                0x0000000000000000       0x32 CMakeFiles/HandGest.dir/home/anonxx/pico/pico-sdk/lib/tinyusb/src/class/midi/midi_device.c.obj
 .text          0x0000000000000000        0x0 CMakeFiles/HandGest.dir/home/anonxx/pico/pico-sdk/lib/tinyusb/src/class/msc/msc_device.c.obj
 .data          0x0000000000000000        0x0 CMakeFiles/HandGest.dir/home/anonxx/pico/pico-sdk/lib/tinyusb/src/class/msc/msc_device.c.obj
 .bss           0x0000000000000000        0x0 CMakeFiles/HandGest.dir/home/anonxx/pico/pico-sdk/lib/tinyusb/src/class/msc/msc_device.c.obj
 .debug_info    0x0000000000000000       0x88 CMakeFiles/HandGest.dir/home/anonxx/pico/pico-sdk/lib/tinyusb/src/class/msc/msc_device.c.obj
 .debug_abbrev  0x0000000000000000       0x51 CMakeFiles/HandGest.dir/home/anonxx/pico/pico-sdk/lib/tinyusb/src/class/msc/msc_device.c.obj
 .debug_aranges
                0x0000000000000000       0x18 CMakeFiles/HandGest.dir/home/anonxx/pico/pico-sdk/lib/tinyusb/src/class/msc/msc_device.c.obj
 .debug_line    0x0000000000000000       0xbf CMakeFiles/HandGest.dir/home/anonxx/pico/pico-sdk/lib/tinyusb/src/class/msc/msc_device.c.obj
 .debug_str     0x0000000000000000      0x1d1 CMakeFiles/HandGest.dir/home/anonxx/pico/pico-sdk/lib/tinyusb/src/class/msc/msc_device.c.obj
 .comment       0x0000000000000000       0x5a CMakeFiles/HandGest.dir/home/anonxx/pico/pico-sdk/lib/tinyusb/src/class/msc/msc_device.c.obj
 .ARM.attributes
                0x0000000000000000       0x32 CMakeFiles/HandGest.dir/home/anonxx/pico/pico-sdk/lib/tinyusb/src/class/msc/msc_device.c.obj
 .text          0x0000000000000000        0x0 CMakeFiles/HandGest.dir/home/anonxx/pico/pico-sdk/lib/tinyusb/src/class/net/net_device.c.obj
 .data          0x0000000000000000        0x0 CMakeFiles/HandGest.dir/home/anonxx/pico/pico-sdk/lib/tinyusb/src/class/net/net_device.c.obj
 .bss           0x0000000000000000        0x0 CMakeFiles/HandGest.dir/home/anonxx/pico/pico-sdk/lib/tinyusb/src/class/net/net_device.c.obj
 .debug_info    0x0000000000000000       0x88 CMakeFiles/HandGest.dir/home/anonxx/pico/pico-sdk/lib/tinyusb/src/class/net/net_device.c.obj
 .debug_abbrev  0x0000000000000000       0x51 CMakeFiles/HandGest.dir/home/anonxx/pico/pico-sdk/lib/tinyusb/src/class/net/net_device.c.obj
 .debug_aranges
                0x0000000000000000       0x18 CMakeFiles/HandGest.dir/home/anonxx/pico/pico-sdk/lib/tinyusb/src/class/net/net_device.c.obj
 .debug_line    0x0000000000000000       0xbf CMakeFiles/HandGest.dir/home/anonxx/pico/pico-sdk/lib/tinyusb/src/class/net/net_device.c.obj
 .debug_str     0x0000000000000000      0x1d1 CMakeFiles/HandGest.dir/home/anonxx/pico/pico-sdk/lib/tinyusb/src/class/net/net_device.c.obj
 .comment       0x0000000000000000       0x5a CMakeFiles/HandGest.dir/home/anonxx/pico/pico-sdk/lib/tinyusb/src/class/net/net_device.c.obj
 .ARM.attributes
                0x0000000000000000       0x32 CMakeFiles/HandGest.dir/home/anonxx/pico/pico-sdk/lib/tinyusb/src/class/net/net_device.c.obj
 .text          0x0000000000000000        0x0 CMakeFiles/HandGest.dir/home/anonxx/pico/pico-sdk/lib/tinyusb/src/class/usbtmc/usbtmc_device.c.obj
 .data          0x0000000000000000        0x0 CMakeFiles/HandGest.dir/home/anonxx/pico/pico-sdk/lib/tinyusb/src/class/usbtmc/usbtmc_device.c.obj
 .bss           0x0000000000000000        0x0 CMakeFiles/HandGest.dir/home/anonxx/pico/pico-sdk/lib/tinyusb/src/class/usbtmc/usbtmc_device.c.obj
 .debug_info    0x0000000000000000       0x88 CMakeFiles/HandGest.dir/home/anonxx/pico/pico-sdk/lib/tinyusb/src/class/usbtmc/usbtmc_device.c.obj
 .debug_abbrev  0x0000000000000000       0x51 CMakeFiles/HandGest.dir/home/anonxx/pico/pico-sdk/lib/tinyusb/src/class/usbtmc/usbtmc_device.c.obj
 .debug_aranges
                0x0000000000000000       0x18 CMakeFiles/HandGest.dir/home/anonxx/pico/pico-sdk/lib/tinyusb/src/class/usbtmc/usbtmc_device.c.obj
 .debug_line    0x0000000000000000       0xbf CMakeFiles/HandGest.dir/home/anonxx/pico/pico-sdk/lib/tinyusb/src/class/usbtmc/usbtmc_device.c.obj
 .debug_str     0x0000000000000000      0x1d7 CMakeFiles/HandGest.dir/home/anonxx/pico/pico-sdk/lib/tinyusb/src/class/usbtmc/usbtmc_device.c.obj
 .comment       0x0000000000000000       0x5a CMakeFiles/HandGest.dir/home/anonxx/pico/pico-sdk/lib/tinyusb/src/class/usbtmc/usbtmc_device.c.obj
 .ARM.attributes
                0x0000000000000000       0x32 CMakeFiles/HandGest.dir/home/anonxx/pico/pico-sdk/lib/tinyusb/src/class/usbtmc/usbtmc_device.c.obj
 .text          0x0000000000000000        0x0 CMakeFiles/HandGest.dir/home/anonxx/pico/pico-sdk/lib/tinyusb/src/class/vendor/vendor_device.c.obj
 .data          0x0000000000000000        0x0 CMakeFiles/HandGest.dir/home/anonxx/pico/pico-sdk/lib/tinyusb/src/class/vendor/vendor_device.c.obj
 .bss           0x0000000000000000        0x0 CMakeFiles/HandGest.dir/home/anonxx/pico/pico-sdk/lib/tinyusb/src/class/vendor/vendor_device.c.obj
 .debug_info    0x0000000000000000       0x88 CMakeFiles/HandGest.dir/home/anonxx/pico/pico-sdk/lib/tinyusb/src/class/vendor/vendor_device.c.obj
 .debug_abbrev  0x0000000000000000       0x51 CMakeFiles/HandGest.dir/home/anonxx/pico/pico-sdk/lib/tinyusb/src/class/vendor/vendor_device.c.obj
 .debug_aranges
                0x0000000000000000       0x18 CMakeFiles/HandGest.dir/home/anonxx/pico/pico-sdk/lib/tinyusb/src/class/vendor/vendor_device.c.obj
 .debug_line    0x0000000000000000       0xbf CMakeFiles/HandGest.dir/home/anonxx/pico/pico-sdk/lib/tinyusb/src/class/vendor/vendor_device.c.obj
 .debug_str     0x0000000000000000      0x1d7 CMakeFiles/HandGest.dir/home/anonxx/pico/pico-sdk/lib/tinyusb/src/class/vendor/vendor_device.c.obj
 .comment       0x0000000000000000       0x5a CMakeFiles/HandGest.dir/home/anonxx/pico/pico-sdk/lib/tinyusb/src/class/vendor/vendor_device.c.obj
 .ARM.attributes
                0x0000000000000000       0x32 CMakeFiles/HandGest.dir/home/anonxx/pico/pico-sdk/lib/tinyusb/src/class/vendor/vendor_device.c.obj
 .text          0x0000000000000000        0x0 CMakeFiles/HandGest.dir/home/anonxx/pico/pico-sdk/lib/tinyusb/src/tusb.c.obj
 .data          0x0000000000000000        0x0 CMakeFiles/HandGest.dir/home/anonxx/pico/pico-sdk/lib/tinyusb/src/tusb.c.obj
 .bss           0x0000000000000000        0x0 CMakeFiles/HandGest.dir/home/anonxx/pico/pico-sdk/lib/tinyusb/src/tusb.c.obj
 .rodata.dump_str_line.str1.4
                0x0000000000000000        0x7 CMakeFiles/HandGest.dir/home/anonxx/pico/pico-sdk/lib/tinyusb/src/tusb.c.obj
 .text.dump_str_line
                0x0000000000000000       0x40 CMakeFiles/HandGest.dir/home/anonxx/pico/pico-sdk/lib/tinyusb/src/tusb.c.obj
 .rodata.tu_print_mem.str1.4
                0x0000000000000000       0x15 CMakeFiles/HandGest.dir/home/anonxx/pico/pico-sdk/lib/tinyusb/src/tusb.c.obj
 .text.tu_print_mem
                0x0000000000000000       0xe0 CMakeFiles/HandGest.dir/home/anonxx/pico/pico-sdk/lib/tinyusb/src/tusb.c.obj
 .rodata.str1.4
                0x0000000000000000      0x132 CMakeFiles/HandGest.dir/home/anonxx/pico/pico-sdk/lib/tinyusb/src/tusb.c.obj
 .rodata.tusb_strerr
                0x0000000000000000       0x2c CMakeFiles/HandGest.dir/home/anonxx/pico/pico-sdk/lib/tinyusb/src/tusb.c.obj
 .text          0x0000000000000000        0x0 CMakeFiles/HandGest.dir/home/anonxx/pico/pico-sdk/lib/tinyusb/src/common/tusb_fifo.c.obj
 .data          0x0000000000000000        0x0 CMakeFiles/HandGest.dir/home/anonxx/pico/pico-sdk/lib/tinyusb/src/common/tusb_fifo.c.obj
 .bss           0x0000000000000000        0x0 CMakeFiles/HandGest.dir/home/anonxx/pico/pico-sdk/lib/tinyusb/src/common/tusb_fifo.c.obj
 .text.tu_fifo_empty
                0x0000000000000000        0xe CMakeFiles/HandGest.dir/home/anonxx/pico/pico-sdk/lib/tinyusb/src/common/tusb_fifo.c.obj
 .text.tu_fifo_full
                0x0000000000000000       0x24 CMakeFiles/HandGest.dir/home/anonxx/pico/pico-sdk/lib/tinyusb/src/common/tusb_fifo.c.obj
 .text.tu_fifo_overflowed
                0x0000000000000000       0x22 CMakeFiles/HandGest.dir/home/anonxx/pico/pico-sdk/lib/tinyusb/src/common/tusb_fifo.c.obj
 .text.tu_fifo_correct_read_pointer
                0x0000000000000000       0x1e CMakeFiles/HandGest.dir/home/anonxx/pico/pico-sdk/lib/tinyusb/src/common/tusb_fifo.c.obj
 .text.tu_fifo_peek_at
                0x0000000000000000       0x2e CMakeFiles/HandGest.dir/home/anonxx/pico/pico-sdk/lib/tinyusb/src/common/tusb_fifo.c.obj
 .text.tu_fifo_peek_at_n
                0x0000000000000000       0x36 CMakeFiles/HandGest.dir/home/anonxx/pico/pico-sdk/lib/tinyusb/src/common/tusb_fifo.c.obj
 .text.tu_fifo_advance_write_pointer
                0x0000000000000000       0x12 CMakeFiles/HandGest.dir/home/anonxx/pico/pico-sdk/lib/tinyusb/src/common/tusb_fifo.c.obj
 .text.tu_fifo_advance_read_pointer
                0x0000000000000000       0x12 CMakeFiles/HandGest.dir/home/anonxx/pico/pico-sdk/lib/tinyusb/src/common/tusb_fifo.c.obj
 .text          0x0000000000000000        0x0 CMakeFiles/HandGest.dir/home/anonxx/pico/pico-sdk/src/rp2_common/pico_fix/rp2040_usb_device_enumeration/rp2040_usb_device_enumeration.c.obj
 .data          0x0000000000000000        0x0 CMakeFiles/HandGest.dir/home/anonxx/pico/pico-sdk/src/rp2_common/pico_fix/rp2040_usb_device_enumeration/rp2040_usb_device_enumeration.c.obj
 .bss           0x0000000000000000        0x0 CMakeFiles/HandGest.dir/home/anonxx/pico/pico-sdk/src/rp2_common/pico_fix/rp2040_usb_device_enumeration/rp2040_usb_device_enumeration.c.obj
 .text.hw_enumeration_fix_finish
                0x0000000000000000       0x40 CMakeFiles/HandGest.dir/home/anonxx/pico/pico-sdk/src/rp2_common/pico_fix/rp2040_usb_device_enumeration/rp2040_usb_device_enumeration.c.obj
 .text.hw_enumeration_fix_force_ls_j_done
                0x0000000000000000        0xc CMakeFiles/HandGest.dir/home/anonxx/pico/pico-sdk/src/rp2_common/pico_fix/rp2040_usb_device_enumeration/rp2040_usb_device_enumeration.c.obj
 .rodata.hw_enumeration_fix_force_ls_j.str1.4
                0x0000000000000000      0x111 CMakeFiles/HandGest.dir/home/anonxx/pico/pico-sdk/src/rp2_common/pico_fix/rp2040_usb_device_enumeration/rp2040_usb_device_enumeration.c.obj
 .text.hw_enumeration_fix_force_ls_j
                0x0000000000000000      0x128 CMakeFiles/HandGest.dir/home/anonxx/pico/pico-sdk/src/rp2_common/pico_fix/rp2040_usb_device_enumeration/rp2040_usb_device_enumeration.c.obj
 .text.hw_enumeration_fix_wait_se0_callback
                0x0000000000000000       0x24 CMakeFiles/HandGest.dir/home/anonxx/pico/pico-sdk/src/rp2_common/pico_fix/rp2040_usb_device_enumeration/rp2040_usb_device_enumeration.c.obj
 .text.hw_enumeration_fix_wait_se0
                0x0000000000000000       0x88 CMakeFiles/HandGest.dir/home/anonxx/pico/pico-sdk/src/rp2_common/pico_fix/rp2040_usb_device_enumeration/rp2040_usb_device_enumeration.c.obj
 .text.rp2040_usb_device_enumeration_fix
                0x0000000000000000        0x8 CMakeFiles/HandGest.dir/home/anonxx/pico/pico-sdk/src/rp2_common/pico_fix/rp2040_usb_device_enumeration/rp2040_usb_device_enumeration.c.obj
 .bss.gpio_ctrl_prev
                0x0000000000000000        0x4 CMakeFiles/HandGest.dir/home/anonxx/pico/pico-sdk/src/rp2_common/pico_fix/rp2040_usb_device_enumeration/rp2040_usb_device_enumeration.c.obj
 .bss.pad_ctrl_prev
                0x0000000000000000        0x4 CMakeFiles/HandGest.dir/home/anonxx/pico/pico-sdk/src/rp2_common/pico_fix/rp2040_usb_device_enumeration/rp2040_usb_device_enumeration.c.obj
 .rodata.__func__.4193
                0x0000000000000000       0x15 CMakeFiles/HandGest.dir/home/anonxx/pico/pico-sdk/src/rp2_common/pico_fix/rp2040_usb_device_enumeration/rp2040_usb_device_enumeration.c.obj
 .rodata.__func__.4771
                0x0000000000000000       0x1e CMakeFiles/HandGest.dir/home/anonxx/pico/pico-sdk/src/rp2_common/pico_fix/rp2040_usb_device_enumeration/rp2040_usb_device_enumeration.c.obj
 .debug_info    0x0000000000000000      0xdb4 CMakeFiles/HandGest.dir/home/anonxx/pico/pico-sdk/src/rp2_common/pico_fix/rp2040_usb_device_enumeration/rp2040_usb_device_enumeration.c.obj
 .debug_abbrev  0x0000000000000000      0x3aa CMakeFiles/HandGest.dir/home/anonxx/pico/pico-sdk/src/rp2_common/pico_fix/rp2040_usb_device_enumeration/rp2040_usb_device_enumeration.c.obj
 .debug_loc     0x0000000000000000      0x519 CMakeFiles/HandGest.dir/home/anonxx/pico/pico-sdk/src/rp2_common/pico_fix/rp2040_usb_device_enumeration/rp2040_usb_device_enumeration.c.obj
 .debug_aranges
                0x0000000000000000       0x48 CMakeFiles/HandGest.dir/home/anonxx/pico/pico-sdk/src/rp2_common/pico_fix/rp2040_usb_device_enumeration/rp2040_usb_device_enumeration.c.obj
 .debug_ranges  0x0000000000000000      0x158 CMakeFiles/HandGest.dir/home/anonxx/pico/pico-sdk/src/rp2_common/pico_fix/rp2040_usb_device_enumeration/rp2040_usb_device_enumeration.c.obj
 .debug_line    0x0000000000000000      0x613 CMakeFiles/HandGest.dir/home/anonxx/pico/pico-sdk/src/rp2_common/pico_fix/rp2040_usb_device_enumeration/rp2040_usb_device_enumeration.c.obj
 .debug_str     0x0000000000000000      0x73c CMakeFiles/HandGest.dir/home/anonxx/pico/pico-sdk/src/rp2_common/pico_fix/rp2040_usb_device_enumeration/rp2040_usb_device_enumeration.c.obj
 .comment       0x0000000000000000       0x5a CMakeFiles/HandGest.dir/home/anonxx/pico/pico-sdk/src/rp2_common/pico_fix/rp2040_usb_device_enumeration/rp2040_usb_device_enumeration.c.obj
 .debug_frame   0x0000000000000000       0xa8 CMakeFiles/HandGest.dir/home/anonxx/pico/pico-sdk/src/rp2_common/pico_fix/rp2040_usb_device_enumeration/rp2040_usb_device_enumeration.c.obj
 .ARM.attributes
                0x0000000000000000       0x2c CMakeFiles/HandGest.dir/home/anonxx/pico/pico-sdk/src/rp2_common/pico_fix/rp2040_usb_device_enumeration/rp2040_usb_device_enumeration.c.obj
 .text          0x0000000000000000        0x0 /tmp/ccLCwxu1.o
 .data          0x0000000000000000        0x0 /tmp/ccLCwxu1.o
 .bss           0x0000000000000000        0x0 /tmp/ccLCwxu1.o
 .data          0x0000000000000000        0x0 /usr/lib/gcc/arm-none-eabi/9.2.1/thumb/v6-m/nofp/libgcc.a(_dvmd_tls.o)
 .bss           0x0000000000000000        0x0 /usr/lib/gcc/arm-none-eabi/9.2.1/thumb/v6-m/nofp/libgcc.a(_dvmd_tls.o)
 .text          0x0000000000000000       0x10 /usr/lib/gcc/arm-none-eabi/9.2.1/../../../arm-none-eabi/lib/thumb/v6-m/nofp/libg.a(lib_a-atexit.o)
 .data          0x0000000000000000        0x0 /usr/lib/gcc/arm-none-eabi/9.2.1/../../../arm-none-eabi/lib/thumb/v6-m/nofp/libg.a(lib_a-atexit.o)
 .bss           0x0000000000000000        0x0 /usr/lib/gcc/arm-none-eabi/9.2.1/../../../arm-none-eabi/lib/thumb/v6-m/nofp/libg.a(lib_a-atexit.o)
 .debug_info    0x0000000000000000      0x995 /usr/lib/gcc/arm-none-eabi/9.2.1/../../../arm-none-eabi/lib/thumb/v6-m/nofp/libg.a(lib_a-atexit.o)
 .debug_abbrev  0x0000000000000000      0x22f /usr/lib/gcc/arm-none-eabi/9.2.1/../../../arm-none-eabi/lib/thumb/v6-m/nofp/libg.a(lib_a-atexit.o)
 .debug_loc     0x0000000000000000       0x32 /usr/lib/gcc/arm-none-eabi/9.2.1/../../../arm-none-eabi/lib/thumb/v6-m/nofp/libg.a(lib_a-atexit.o)
 .debug_aranges
                0x0000000000000000       0x20 /usr/lib/gcc/arm-none-eabi/9.2.1/../../../arm-none-eabi/lib/thumb/v6-m/nofp/libg.a(lib_a-atexit.o)
 .debug_line    0x0000000000000000      0x152 /usr/lib/gcc/arm-none-eabi/9.2.1/../../../arm-none-eabi/lib/thumb/v6-m/nofp/libg.a(lib_a-atexit.o)
 .debug_str     0x0000000000000000      0x5e4 /usr/lib/gcc/arm-none-eabi/9.2.1/../../../arm-none-eabi/lib/thumb/v6-m/nofp/libg.a(lib_a-atexit.o)
 .comment       0x0000000000000000       0x4f /usr/lib/gcc/arm-none-eabi/9.2.1/../../../arm-none-eabi/lib/thumb/v6-m/nofp/libg.a(lib_a-atexit.o)
 .debug_frame   0x0000000000000000       0x28 /usr/lib/gcc/arm-none-eabi/9.2.1/../../../arm-none-eabi/lib/thumb/v6-m/nofp/libg.a(lib_a-atexit.o)
 .ARM.attributes
                0x0000000000000000       0x2c /usr/lib/gcc/arm-none-eabi/9.2.1/../../../arm-none-eabi/lib/thumb/v6-m/nofp/libg.a(lib_a-atexit.o)
 .text          0x0000000000000000       0x18 /usr/lib/gcc/arm-none-eabi/9.2.1/../../../arm-none-eabi/lib/thumb/v6-m/nofp/libg.a(lib_a-calloc.o)
 .data          0x0000000000000000        0x0 /usr/lib/gcc/arm-none-eabi/9.2.1/../../../arm-none-eabi/lib/thumb/v6-m/nofp/libg.a(lib_a-calloc.o)
 .bss           0x0000000000000000        0x0 /usr/lib/gcc/arm-none-eabi/9.2.1/../../../arm-none-eabi/lib/thumb/v6-m/nofp/libg.a(lib_a-calloc.o)
 .debug_info    0x0000000000000000      0x988 /usr/lib/gcc/arm-none-eabi/9.2.1/../../../arm-none-eabi/lib/thumb/v6-m/nofp/libg.a(lib_a-calloc.o)
 .debug_abbrev  0x0000000000000000      0x225 /usr/lib/gcc/arm-none-eabi/9.2.1/../../../arm-none-eabi/lib/thumb/v6-m/nofp/libg.a(lib_a-calloc.o)
 .debug_loc     0x0000000000000000       0x64 /usr/lib/gcc/arm-none-eabi/9.2.1/../../../arm-none-eabi/lib/thumb/v6-m/nofp/libg.a(lib_a-calloc.o)
 .debug_aranges
                0x0000000000000000       0x20 /usr/lib/gcc/arm-none-eabi/9.2.1/../../../arm-none-eabi/lib/thumb/v6-m/nofp/libg.a(lib_a-calloc.o)
 .debug_line    0x0000000000000000      0x14c /usr/lib/gcc/arm-none-eabi/9.2.1/../../../arm-none-eabi/lib/thumb/v6-m/nofp/libg.a(lib_a-calloc.o)
 .debug_str     0x0000000000000000      0x5b6 /usr/lib/gcc/arm-none-eabi/9.2.1/../../../arm-none-eabi/lib/thumb/v6-m/nofp/libg.a(lib_a-calloc.o)
 .comment       0x0000000000000000       0x4f /usr/lib/gcc/arm-none-eabi/9.2.1/../../../arm-none-eabi/lib/thumb/v6-m/nofp/libg.a(lib_a-calloc.o)
 .debug_frame   0x0000000000000000       0x28 /usr/lib/gcc/arm-none-eabi/9.2.1/../../../arm-none-eabi/lib/thumb/v6-m/nofp/libg.a(lib_a-calloc.o)
 .ARM.attributes
                0x0000000000000000       0x2c /usr/lib/gcc/arm-none-eabi/9.2.1/../../../arm-none-eabi/lib/thumb/v6-m/nofp/libg.a(lib_a-calloc.o)
 .text          0x0000000000000000       0x5c /usr/lib/gcc/arm-none-eabi/9.2.1/../../../arm-none-eabi/lib/thumb/v6-m/nofp/libg.a(lib_a-callocr.o)
 .data          0x0000000000000000        0x0 /usr/lib/gcc/arm-none-eabi/9.2.1/../../../arm-none-eabi/lib/thumb/v6-m/nofp/libg.a(lib_a-callocr.o)
 .bss           0x0000000000000000        0x0 /usr/lib/gcc/arm-none-eabi/9.2.1/../../../arm-none-eabi/lib/thumb/v6-m/nofp/libg.a(lib_a-callocr.o)
 .debug_info    0x0000000000000000      0xc2f /usr/lib/gcc/arm-none-eabi/9.2.1/../../../arm-none-eabi/lib/thumb/v6-m/nofp/libg.a(lib_a-callocr.o)
 .debug_abbrev  0x0000000000000000      0x275 /usr/lib/gcc/arm-none-eabi/9.2.1/../../../arm-none-eabi/lib/thumb/v6-m/nofp/libg.a(lib_a-callocr.o)
 .debug_loc     0x0000000000000000      0x299 /usr/lib/gcc/arm-none-eabi/9.2.1/../../../arm-none-eabi/lib/thumb/v6-m/nofp/libg.a(lib_a-callocr.o)
 .debug_aranges
                0x0000000000000000       0x20 /usr/lib/gcc/arm-none-eabi/9.2.1/../../../arm-none-eabi/lib/thumb/v6-m/nofp/libg.a(lib_a-callocr.o)
 .debug_ranges  0x0000000000000000       0x40 /usr/lib/gcc/arm-none-eabi/9.2.1/../../../arm-none-eabi/lib/thumb/v6-m/nofp/libg.a(lib_a-callocr.o)
 .debug_line    0x0000000000000000      0x1e7 /usr/lib/gcc/arm-none-eabi/9.2.1/../../../arm-none-eabi/lib/thumb/v6-m/nofp/libg.a(lib_a-callocr.o)
 .debug_str     0x0000000000000000      0x725 /usr/lib/gcc/arm-none-eabi/9.2.1/../../../arm-none-eabi/lib/thumb/v6-m/nofp/libg.a(lib_a-callocr.o)
 .comment       0x0000000000000000       0x4f /usr/lib/gcc/arm-none-eabi/9.2.1/../../../arm-none-eabi/lib/thumb/v6-m/nofp/libg.a(lib_a-callocr.o)
 .debug_frame   0x0000000000000000       0x28 /usr/lib/gcc/arm-none-eabi/9.2.1/../../../arm-none-eabi/lib/thumb/v6-m/nofp/libg.a(lib_a-callocr.o)
 .ARM.attributes
                0x0000000000000000       0x2c /usr/lib/gcc/arm-none-eabi/9.2.1/../../../arm-none-eabi/lib/thumb/v6-m/nofp/libg.a(lib_a-callocr.o)
 .text          0x0000000000000000        0x0 /usr/lib/gcc/arm-none-eabi/9.2.1/../../../arm-none-eabi/lib/thumb/v6-m/nofp/libg.a(lib_a-ctype_.o)
 .data          0x0000000000000000        0x0 /usr/lib/gcc/arm-none-eabi/9.2.1/../../../arm-none-eabi/lib/thumb/v6-m/nofp/libg.a(lib_a-ctype_.o)
 .bss           0x0000000000000000        0x0 /usr/lib/gcc/arm-none-eabi/9.2.1/../../../arm-none-eabi/lib/thumb/v6-m/nofp/libg.a(lib_a-ctype_.o)
 .rodata        0x0000000000000000      0x101 /usr/lib/gcc/arm-none-eabi/9.2.1/../../../arm-none-eabi/lib/thumb/v6-m/nofp/libg.a(lib_a-ctype_.o)
 .debug_info    0x0000000000000000      0xe91 /usr/lib/gcc/arm-none-eabi/9.2.1/../../../arm-none-eabi/lib/thumb/v6-m/nofp/libg.a(lib_a-ctype_.o)
 .debug_abbrev  0x0000000000000000      0x1b6 /usr/lib/gcc/arm-none-eabi/9.2.1/../../../arm-none-eabi/lib/thumb/v6-m/nofp/libg.a(lib_a-ctype_.o)
 .debug_aranges
                0x0000000000000000       0x18 /usr/lib/gcc/arm-none-eabi/9.2.1/../../../arm-none-eabi/lib/thumb/v6-m/nofp/libg.a(lib_a-ctype_.o)
 .debug_line    0x0000000000000000      0x154 /usr/lib/gcc/arm-none-eabi/9.2.1/../../../arm-none-eabi/lib/thumb/v6-m/nofp/libg.a(lib_a-ctype_.o)
 .debug_str     0x0000000000000000      0x8b1 /usr/lib/gcc/arm-none-eabi/9.2.1/../../../arm-none-eabi/lib/thumb/v6-m/nofp/libg.a(lib_a-ctype_.o)
 .comment       0x0000000000000000       0x4f /usr/lib/gcc/arm-none-eabi/9.2.1/../../../arm-none-eabi/lib/thumb/v6-m/nofp/libg.a(lib_a-ctype_.o)
 .ARM.attributes
                0x0000000000000000       0x2c /usr/lib/gcc/arm-none-eabi/9.2.1/../../../arm-none-eabi/lib/thumb/v6-m/nofp/libg.a(lib_a-ctype_.o)
 .text          0x0000000000000000       0x28 /usr/lib/gcc/arm-none-eabi/9.2.1/../../../arm-none-eabi/lib/thumb/v6-m/nofp/libg.a(lib_a-fini.o)
 .data          0x0000000000000000        0x0 /usr/lib/gcc/arm-none-eabi/9.2.1/../../../arm-none-eabi/lib/thumb/v6-m/nofp/libg.a(lib_a-fini.o)
 .bss           0x0000000000000000        0x0 /usr/lib/gcc/arm-none-eabi/9.2.1/../../../arm-none-eabi/lib/thumb/v6-m/nofp/libg.a(lib_a-fini.o)
 .debug_info    0x0000000000000000      0x102 /usr/lib/gcc/arm-none-eabi/9.2.1/../../../arm-none-eabi/lib/thumb/v6-m/nofp/libg.a(lib_a-fini.o)
 .debug_abbrev  0x0000000000000000       0xcc /usr/lib/gcc/arm-none-eabi/9.2.1/../../../arm-none-eabi/lib/thumb/v6-m/nofp/libg.a(lib_a-fini.o)
 .debug_loc     0x0000000000000000       0x46 /usr/lib/gcc/arm-none-eabi/9.2.1/../../../arm-none-eabi/lib/thumb/v6-m/nofp/libg.a(lib_a-fini.o)
 .debug_aranges
                0x0000000000000000       0x20 /usr/lib/gcc/arm-none-eabi/9.2.1/../../../arm-none-eabi/lib/thumb/v6-m/nofp/libg.a(lib_a-fini.o)
 .debug_line    0x0000000000000000       0xd4 /usr/lib/gcc/arm-none-eabi/9.2.1/../../../arm-none-eabi/lib/thumb/v6-m/nofp/libg.a(lib_a-fini.o)
 .debug_str     0x0000000000000000      0x1f3 /usr/lib/gcc/arm-none-eabi/9.2.1/../../../arm-none-eabi/lib/thumb/v6-m/nofp/libg.a(lib_a-fini.o)
 .comment       0x0000000000000000       0x4f /usr/lib/gcc/arm-none-eabi/9.2.1/../../../arm-none-eabi/lib/thumb/v6-m/nofp/libg.a(lib_a-fini.o)
 .debug_frame   0x0000000000000000       0x2c /usr/lib/gcc/arm-none-eabi/9.2.1/../../../arm-none-eabi/lib/thumb/v6-m/nofp/libg.a(lib_a-fini.o)
 .ARM.attributes
                0x0000000000000000       0x2c /usr/lib/gcc/arm-none-eabi/9.2.1/../../../arm-none-eabi/lib/thumb/v6-m/nofp/libg.a(lib_a-fini.o)
 .text          0x0000000000000000        0x0 /usr/lib/gcc/arm-none-eabi/9.2.1/../../../arm-none-eabi/lib/thumb/v6-m/nofp/libg.a(lib_a-impure.o)
 .data          0x0000000000000000      0x430 /usr/lib/gcc/arm-none-eabi/9.2.1/../../../arm-none-eabi/lib/thumb/v6-m/nofp/libg.a(lib_a-impure.o)
 .bss           0x0000000000000000        0x0 /usr/lib/gcc/arm-none-eabi/9.2.1/../../../arm-none-eabi/lib/thumb/v6-m/nofp/libg.a(lib_a-impure.o)
 .rodata        0x0000000000000000        0x4 /usr/lib/gcc/arm-none-eabi/9.2.1/../../../arm-none-eabi/lib/thumb/v6-m/nofp/libg.a(lib_a-impure.o)
 .debug_info    0x0000000000000000      0x92a /usr/lib/gcc/arm-none-eabi/9.2.1/../../../arm-none-eabi/lib/thumb/v6-m/nofp/libg.a(lib_a-impure.o)
 .debug_abbrev  0x0000000000000000      0x1b8 /usr/lib/gcc/arm-none-eabi/9.2.1/../../../arm-none-eabi/lib/thumb/v6-m/nofp/libg.a(lib_a-impure.o)
 .debug_aranges
                0x0000000000000000       0x18 /usr/lib/gcc/arm-none-eabi/9.2.1/../../../arm-none-eabi/lib/thumb/v6-m/nofp/libg.a(lib_a-impure.o)
 .debug_line    0x0000000000000000       0xe3 /usr/lib/gcc/arm-none-eabi/9.2.1/../../../arm-none-eabi/lib/thumb/v6-m/nofp/libg.a(lib_a-impure.o)
 .debug_str     0x0000000000000000      0x599 /usr/lib/gcc/arm-none-eabi/9.2.1/../../../arm-none-eabi/lib/thumb/v6-m/nofp/libg.a(lib_a-impure.o)
 .comment       0x0000000000000000       0x4f /usr/lib/gcc/arm-none-eabi/9.2.1/../../../arm-none-eabi/lib/thumb/v6-m/nofp/libg.a(lib_a-impure.o)
 .ARM.attributes
                0x0000000000000000       0x2c /usr/lib/gcc/arm-none-eabi/9.2.1/../../../arm-none-eabi/lib/thumb/v6-m/nofp/libg.a(lib_a-impure.o)
 .text          0x0000000000000000       0x44 /usr/lib/gcc/arm-none-eabi/9.2.1/../../../arm-none-eabi/lib/thumb/v6-m/nofp/libg.a(lib_a-init.o)
 .data          0x0000000000000000        0x0 /usr/lib/gcc/arm-none-eabi/9.2.1/../../../arm-none-eabi/lib/thumb/v6-m/nofp/libg.a(lib_a-init.o)
 .bss           0x0000000000000000        0x0 /usr/lib/gcc/arm-none-eabi/9.2.1/../../../arm-none-eabi/lib/thumb/v6-m/nofp/libg.a(lib_a-init.o)
 .debug_info    0x0000000000000000      0x11a /usr/lib/gcc/arm-none-eabi/9.2.1/../../../arm-none-eabi/lib/thumb/v6-m/nofp/libg.a(lib_a-init.o)
 .debug_abbrev  0x0000000000000000       0xcc /usr/lib/gcc/arm-none-eabi/9.2.1/../../../arm-none-eabi/lib/thumb/v6-m/nofp/libg.a(lib_a-init.o)
 .debug_loc     0x0000000000000000       0x98 /usr/lib/gcc/arm-none-eabi/9.2.1/../../../arm-none-eabi/lib/thumb/v6-m/nofp/libg.a(lib_a-init.o)
 .debug_aranges
                0x0000000000000000       0x20 /usr/lib/gcc/arm-none-eabi/9.2.1/../../../arm-none-eabi/lib/thumb/v6-m/nofp/libg.a(lib_a-init.o)
 .debug_line    0x0000000000000000       0xfc /usr/lib/gcc/arm-none-eabi/9.2.1/../../../arm-none-eabi/lib/thumb/v6-m/nofp/libg.a(lib_a-init.o)
 .debug_str     0x0000000000000000      0x21d /usr/lib/gcc/arm-none-eabi/9.2.1/../../../arm-none-eabi/lib/thumb/v6-m/nofp/libg.a(lib_a-init.o)
 .comment       0x0000000000000000       0x4f /usr/lib/gcc/arm-none-eabi/9.2.1/../../../arm-none-eabi/lib/thumb/v6-m/nofp/libg.a(lib_a-init.o)
 .debug_frame   0x0000000000000000       0x2c /usr/lib/gcc/arm-none-eabi/9.2.1/../../../arm-none-eabi/lib/thumb/v6-m/nofp/libg.a(lib_a-init.o)
 .ARM.attributes
                0x0000000000000000       0x2c /usr/lib/gcc/arm-none-eabi/9.2.1/../../../arm-none-eabi/lib/thumb/v6-m/nofp/libg.a(lib_a-init.o)
 .text          0x0000000000000000       0x28 /usr/lib/gcc/arm-none-eabi/9.2.1/../../../arm-none-eabi/lib/thumb/v6-m/nofp/libg.a(lib_a-malloc.o)
 .data          0x0000000000000000        0x0 /usr/lib/gcc/arm-none-eabi/9.2.1/../../../arm-none-eabi/lib/thumb/v6-m/nofp/libg.a(lib_a-malloc.o)
 .bss           0x0000000000000000        0x0 /usr/lib/gcc/arm-none-eabi/9.2.1/../../../arm-none-eabi/lib/thumb/v6-m/nofp/libg.a(lib_a-malloc.o)
 .debug_info    0x0000000000000000      0x9b6 /usr/lib/gcc/arm-none-eabi/9.2.1/../../../arm-none-eabi/lib/thumb/v6-m/nofp/libg.a(lib_a-malloc.o)
 .debug_abbrev  0x0000000000000000      0x22d /usr/lib/gcc/arm-none-eabi/9.2.1/../../../arm-none-eabi/lib/thumb/v6-m/nofp/libg.a(lib_a-malloc.o)
 .debug_loc     0x0000000000000000       0x64 /usr/lib/gcc/arm-none-eabi/9.2.1/../../../arm-none-eabi/lib/thumb/v6-m/nofp/libg.a(lib_a-malloc.o)
 .debug_aranges
                0x0000000000000000       0x20 /usr/lib/gcc/arm-none-eabi/9.2.1/../../../arm-none-eabi/lib/thumb/v6-m/nofp/libg.a(lib_a-malloc.o)
 .debug_line    0x0000000000000000      0x16e /usr/lib/gcc/arm-none-eabi/9.2.1/../../../arm-none-eabi/lib/thumb/v6-m/nofp/libg.a(lib_a-malloc.o)
 .debug_str     0x0000000000000000      0x5ca /usr/lib/gcc/arm-none-eabi/9.2.1/../../../arm-none-eabi/lib/thumb/v6-m/nofp/libg.a(lib_a-malloc.o)
 .comment       0x0000000000000000       0x4f /usr/lib/gcc/arm-none-eabi/9.2.1/../../../arm-none-eabi/lib/thumb/v6-m/nofp/libg.a(lib_a-malloc.o)
 .debug_frame   0x0000000000000000       0x40 /usr/lib/gcc/arm-none-eabi/9.2.1/../../../arm-none-eabi/lib/thumb/v6-m/nofp/libg.a(lib_a-malloc.o)
 .ARM.attributes
                0x0000000000000000       0x2c /usr/lib/gcc/arm-none-eabi/9.2.1/../../../arm-none-eabi/lib/thumb/v6-m/nofp/libg.a(lib_a-malloc.o)
 .text          0x0000000000000000      0x58c /usr/lib/gcc/arm-none-eabi/9.2.1/../../../arm-none-eabi/lib/thumb/v6-m/nofp/libg.a(lib_a-mallocr.o)
 .data          0x0000000000000000      0x410 /usr/lib/gcc/arm-none-eabi/9.2.1/../../../arm-none-eabi/lib/thumb/v6-m/nofp/libg.a(lib_a-mallocr.o)
 .bss           0x0000000000000000       0x34 /usr/lib/gcc/arm-none-eabi/9.2.1/../../../arm-none-eabi/lib/thumb/v6-m/nofp/libg.a(lib_a-mallocr.o)
 .debug_info    0x0000000000000000      0xf1a /usr/lib/gcc/arm-none-eabi/9.2.1/../../../arm-none-eabi/lib/thumb/v6-m/nofp/libg.a(lib_a-mallocr.o)
 .debug_abbrev  0x0000000000000000      0x321 /usr/lib/gcc/arm-none-eabi/9.2.1/../../../arm-none-eabi/lib/thumb/v6-m/nofp/libg.a(lib_a-mallocr.o)
 .debug_loc     0x0000000000000000      0xf19 /usr/lib/gcc/arm-none-eabi/9.2.1/../../../arm-none-eabi/lib/thumb/v6-m/nofp/libg.a(lib_a-mallocr.o)
 .debug_aranges
                0x0000000000000000       0x20 /usr/lib/gcc/arm-none-eabi/9.2.1/../../../arm-none-eabi/lib/thumb/v6-m/nofp/libg.a(lib_a-mallocr.o)
 .debug_ranges  0x0000000000000000       0x38 /usr/lib/gcc/arm-none-eabi/9.2.1/../../../arm-none-eabi/lib/thumb/v6-m/nofp/libg.a(lib_a-mallocr.o)
 .debug_line    0x0000000000000000      0x89d /usr/lib/gcc/arm-none-eabi/9.2.1/../../../arm-none-eabi/lib/thumb/v6-m/nofp/libg.a(lib_a-mallocr.o)
 .debug_str     0x0000000000000000      0x801 /usr/lib/gcc/arm-none-eabi/9.2.1/../../../arm-none-eabi/lib/thumb/v6-m/nofp/libg.a(lib_a-mallocr.o)
 .comment       0x0000000000000000       0x4f /usr/lib/gcc/arm-none-eabi/9.2.1/../../../arm-none-eabi/lib/thumb/v6-m/nofp/libg.a(lib_a-mallocr.o)
 .debug_frame   0x0000000000000000       0x3c /usr/lib/gcc/arm-none-eabi/9.2.1/../../../arm-none-eabi/lib/thumb/v6-m/nofp/libg.a(lib_a-mallocr.o)
 .ARM.attributes
                0x0000000000000000       0x2c /usr/lib/gcc/arm-none-eabi/9.2.1/../../../arm-none-eabi/lib/thumb/v6-m/nofp/libg.a(lib_a-mallocr.o)
 .text          0x0000000000000000        0x8 /usr/lib/gcc/arm-none-eabi/9.2.1/../../../arm-none-eabi/lib/thumb/v6-m/nofp/libg.a(lib_a-mlock.o)
 .data          0x0000000000000000        0x0 /usr/lib/gcc/arm-none-eabi/9.2.1/../../../arm-none-eabi/lib/thumb/v6-m/nofp/libg.a(lib_a-mlock.o)
 .bss           0x0000000000000000        0x0 /usr/lib/gcc/arm-none-eabi/9.2.1/../../../arm-none-eabi/lib/thumb/v6-m/nofp/libg.a(lib_a-mlock.o)
 .debug_info    0x0000000000000000      0x961 /usr/lib/gcc/arm-none-eabi/9.2.1/../../../arm-none-eabi/lib/thumb/v6-m/nofp/libg.a(lib_a-mlock.o)
 .debug_abbrev  0x0000000000000000      0x203 /usr/lib/gcc/arm-none-eabi/9.2.1/../../../arm-none-eabi/lib/thumb/v6-m/nofp/libg.a(lib_a-mlock.o)
 .debug_aranges
                0x0000000000000000       0x20 /usr/lib/gcc/arm-none-eabi/9.2.1/../../../arm-none-eabi/lib/thumb/v6-m/nofp/libg.a(lib_a-mlock.o)
 .debug_line    0x0000000000000000      0x13d /usr/lib/gcc/arm-none-eabi/9.2.1/../../../arm-none-eabi/lib/thumb/v6-m/nofp/libg.a(lib_a-mlock.o)
 .debug_str     0x0000000000000000      0x5c5 /usr/lib/gcc/arm-none-eabi/9.2.1/../../../arm-none-eabi/lib/thumb/v6-m/nofp/libg.a(lib_a-mlock.o)
 .comment       0x0000000000000000       0x4f /usr/lib/gcc/arm-none-eabi/9.2.1/../../../arm-none-eabi/lib/thumb/v6-m/nofp/libg.a(lib_a-mlock.o)
 .debug_frame   0x0000000000000000       0x30 /usr/lib/gcc/arm-none-eabi/9.2.1/../../../arm-none-eabi/lib/thumb/v6-m/nofp/libg.a(lib_a-mlock.o)
 .ARM.attributes
                0x0000000000000000       0x2c /usr/lib/gcc/arm-none-eabi/9.2.1/../../../arm-none-eabi/lib/thumb/v6-m/nofp/libg.a(lib_a-mlock.o)
 .text          0x0000000000000000       0x24 /usr/lib/gcc/arm-none-eabi/9.2.1/../../../arm-none-eabi/lib/thumb/v6-m/nofp/libg.a(lib_a-sbrkr.o)
 .data          0x0000000000000000        0x0 /usr/lib/gcc/arm-none-eabi/9.2.1/../../../arm-none-eabi/lib/thumb/v6-m/nofp/libg.a(lib_a-sbrkr.o)
 .bss           0x0000000000000000        0x0 /usr/lib/gcc/arm-none-eabi/9.2.1/../../../arm-none-eabi/lib/thumb/v6-m/nofp/libg.a(lib_a-sbrkr.o)
 .debug_info    0x0000000000000000      0x9fb /usr/lib/gcc/arm-none-eabi/9.2.1/../../../arm-none-eabi/lib/thumb/v6-m/nofp/libg.a(lib_a-sbrkr.o)
 .debug_abbrev  0x0000000000000000      0x250 /usr/lib/gcc/arm-none-eabi/9.2.1/../../../arm-none-eabi/lib/thumb/v6-m/nofp/libg.a(lib_a-sbrkr.o)
 .debug_loc     0x0000000000000000       0x79 /usr/lib/gcc/arm-none-eabi/9.2.1/../../../arm-none-eabi/lib/thumb/v6-m/nofp/libg.a(lib_a-sbrkr.o)
 .debug_aranges
                0x0000000000000000       0x20 /usr/lib/gcc/arm-none-eabi/9.2.1/../../../arm-none-eabi/lib/thumb/v6-m/nofp/libg.a(lib_a-sbrkr.o)
 .debug_line    0x0000000000000000      0x185 /usr/lib/gcc/arm-none-eabi/9.2.1/../../../arm-none-eabi/lib/thumb/v6-m/nofp/libg.a(lib_a-sbrkr.o)
 .debug_str     0x0000000000000000      0x5dc /usr/lib/gcc/arm-none-eabi/9.2.1/../../../arm-none-eabi/lib/thumb/v6-m/nofp/libg.a(lib_a-sbrkr.o)
 .comment       0x0000000000000000       0x4f /usr/lib/gcc/arm-none-eabi/9.2.1/../../../arm-none-eabi/lib/thumb/v6-m/nofp/libg.a(lib_a-sbrkr.o)
 .debug_frame   0x0000000000000000       0x2c /usr/lib/gcc/arm-none-eabi/9.2.1/../../../arm-none-eabi/lib/thumb/v6-m/nofp/libg.a(lib_a-sbrkr.o)
 .ARM.attributes
                0x0000000000000000       0x2c /usr/lib/gcc/arm-none-eabi/9.2.1/../../../arm-none-eabi/lib/thumb/v6-m/nofp/libg.a(lib_a-sbrkr.o)
 .data          0x0000000000000000        0x0 /usr/lib/gcc/arm-none-eabi/9.2.1/../../../arm-none-eabi/lib/thumb/v6-m/nofp/libg.a(lib_a-strlen-stub.o)
 .bss           0x0000000000000000        0x0 /usr/lib/gcc/arm-none-eabi/9.2.1/../../../arm-none-eabi/lib/thumb/v6-m/nofp/libg.a(lib_a-strlen-stub.o)
 .text          0x0000000000000000       0x88 /usr/lib/gcc/arm-none-eabi/9.2.1/../../../arm-none-eabi/lib/thumb/v6-m/nofp/libg.a(lib_a-__atexit.o)
 .data          0x0000000000000000        0x0 /usr/lib/gcc/arm-none-eabi/9.2.1/../../../arm-none-eabi/lib/thumb/v6-m/nofp/libg.a(lib_a-__atexit.o)
 .bss           0x0000000000000000        0x0 /usr/lib/gcc/arm-none-eabi/9.2.1/../../../arm-none-eabi/lib/thumb/v6-m/nofp/libg.a(lib_a-__atexit.o)
 .debug_info    0x0000000000000000      0x9d5 /usr/lib/gcc/arm-none-eabi/9.2.1/../../../arm-none-eabi/lib/thumb/v6-m/nofp/libg.a(lib_a-__atexit.o)
 .debug_abbrev  0x0000000000000000      0x252 /usr/lib/gcc/arm-none-eabi/9.2.1/../../../arm-none-eabi/lib/thumb/v6-m/nofp/libg.a(lib_a-__atexit.o)
 .debug_loc     0x0000000000000000      0x164 /usr/lib/gcc/arm-none-eabi/9.2.1/../../../arm-none-eabi/lib/thumb/v6-m/nofp/libg.a(lib_a-__atexit.o)
 .debug_aranges
                0x0000000000000000       0x20 /usr/lib/gcc/arm-none-eabi/9.2.1/../../../arm-none-eabi/lib/thumb/v6-m/nofp/libg.a(lib_a-__atexit.o)
 .debug_line    0x0000000000000000      0x1f9 /usr/lib/gcc/arm-none-eabi/9.2.1/../../../arm-none-eabi/lib/thumb/v6-m/nofp/libg.a(lib_a-__atexit.o)
 .debug_str     0x0000000000000000      0x602 /usr/lib/gcc/arm-none-eabi/9.2.1/../../../arm-none-eabi/lib/thumb/v6-m/nofp/libg.a(lib_a-__atexit.o)
 .comment       0x0000000000000000       0x4f /usr/lib/gcc/arm-none-eabi/9.2.1/../../../arm-none-eabi/lib/thumb/v6-m/nofp/libg.a(lib_a-__atexit.o)
 .debug_frame   0x0000000000000000       0x38 /usr/lib/gcc/arm-none-eabi/9.2.1/../../../arm-none-eabi/lib/thumb/v6-m/nofp/libg.a(lib_a-__atexit.o)
 .ARM.attributes
                0x0000000000000000       0x2c /usr/lib/gcc/arm-none-eabi/9.2.1/../../../arm-none-eabi/lib/thumb/v6-m/nofp/libg.a(lib_a-__atexit.o)
 .text          0x0000000000000000      0x27c /usr/lib/gcc/arm-none-eabi/9.2.1/../../../arm-none-eabi/lib/thumb/v6-m/nofp/libg.a(lib_a-freer.o)
 .data          0x0000000000000000        0x0 /usr/lib/gcc/arm-none-eabi/9.2.1/../../../arm-none-eabi/lib/thumb/v6-m/nofp/libg.a(lib_a-freer.o)
 .bss           0x0000000000000000        0x0 /usr/lib/gcc/arm-none-eabi/9.2.1/../../../arm-none-eabi/lib/thumb/v6-m/nofp/libg.a(lib_a-freer.o)
 .debug_info    0x0000000000000000      0xd99 /usr/lib/gcc/arm-none-eabi/9.2.1/../../../arm-none-eabi/lib/thumb/v6-m/nofp/libg.a(lib_a-freer.o)
 .debug_abbrev  0x0000000000000000      0x2b9 /usr/lib/gcc/arm-none-eabi/9.2.1/../../../arm-none-eabi/lib/thumb/v6-m/nofp/libg.a(lib_a-freer.o)
 .debug_loc     0x0000000000000000      0x4a9 /usr/lib/gcc/arm-none-eabi/9.2.1/../../../arm-none-eabi/lib/thumb/v6-m/nofp/libg.a(lib_a-freer.o)
 .debug_aranges
                0x0000000000000000       0x20 /usr/lib/gcc/arm-none-eabi/9.2.1/../../../arm-none-eabi/lib/thumb/v6-m/nofp/libg.a(lib_a-freer.o)
 .debug_line    0x0000000000000000      0x482 /usr/lib/gcc/arm-none-eabi/9.2.1/../../../arm-none-eabi/lib/thumb/v6-m/nofp/libg.a(lib_a-freer.o)
 .debug_str     0x0000000000000000      0x77a /usr/lib/gcc/arm-none-eabi/9.2.1/../../../arm-none-eabi/lib/thumb/v6-m/nofp/libg.a(lib_a-freer.o)
 .comment       0x0000000000000000       0x4f /usr/lib/gcc/arm-none-eabi/9.2.1/../../../arm-none-eabi/lib/thumb/v6-m/nofp/libg.a(lib_a-freer.o)
 .debug_frame   0x0000000000000000       0x58 /usr/lib/gcc/arm-none-eabi/9.2.1/../../../arm-none-eabi/lib/thumb/v6-m/nofp/libg.a(lib_a-freer.o)
 .ARM.attributes
                0x0000000000000000       0x2c /usr/lib/gcc/arm-none-eabi/9.2.1/../../../arm-none-eabi/lib/thumb/v6-m/nofp/libg.a(lib_a-freer.o)
 .text          0x0000000000000000       0xb0 /usr/lib/gcc/arm-none-eabi/9.2.1/../../../arm-none-eabi/lib/thumb/v6-m/nofp/libg.a(lib_a-reent.o)
 .data          0x0000000000000000        0x0 /usr/lib/gcc/arm-none-eabi/9.2.1/../../../arm-none-eabi/lib/thumb/v6-m/nofp/libg.a(lib_a-reent.o)
 .bss           0x0000000000000000        0x0 /usr/lib/gcc/arm-none-eabi/9.2.1/../../../arm-none-eabi/lib/thumb/v6-m/nofp/libg.a(lib_a-reent.o)
 .debug_info    0x0000000000000000      0xac2 /usr/lib/gcc/arm-none-eabi/9.2.1/../../../arm-none-eabi/lib/thumb/v6-m/nofp/libg.a(lib_a-reent.o)
 .debug_abbrev  0x0000000000000000      0x2ac /usr/lib/gcc/arm-none-eabi/9.2.1/../../../arm-none-eabi/lib/thumb/v6-m/nofp/libg.a(lib_a-reent.o)
 .debug_loc     0x0000000000000000      0x111 /usr/lib/gcc/arm-none-eabi/9.2.1/../../../arm-none-eabi/lib/thumb/v6-m/nofp/libg.a(lib_a-reent.o)
 .debug_aranges
                0x0000000000000000       0x20 /usr/lib/gcc/arm-none-eabi/9.2.1/../../../arm-none-eabi/lib/thumb/v6-m/nofp/libg.a(lib_a-reent.o)
 .debug_line    0x0000000000000000      0x20d /usr/lib/gcc/arm-none-eabi/9.2.1/../../../arm-none-eabi/lib/thumb/v6-m/nofp/libg.a(lib_a-reent.o)
 .debug_str     0x0000000000000000      0x5d5 /usr/lib/gcc/arm-none-eabi/9.2.1/../../../arm-none-eabi/lib/thumb/v6-m/nofp/libg.a(lib_a-reent.o)
 .comment       0x0000000000000000       0x4f /usr/lib/gcc/arm-none-eabi/9.2.1/../../../arm-none-eabi/lib/thumb/v6-m/nofp/libg.a(lib_a-reent.o)
 .debug_frame   0x0000000000000000       0x48 /usr/lib/gcc/arm-none-eabi/9.2.1/../../../arm-none-eabi/lib/thumb/v6-m/nofp/libg.a(lib_a-reent.o)
 .ARM.attributes
                0x0000000000000000       0x2c /usr/lib/gcc/arm-none-eabi/9.2.1/../../../arm-none-eabi/lib/thumb/v6-m/nofp/libg.a(lib_a-reent.o)
 COMMON         0x0000000000000000        0x4 /usr/lib/gcc/arm-none-eabi/9.2.1/../../../arm-none-eabi/lib/thumb/v6-m/nofp/libg.a(lib_a-reent.o)
 .text          0x0000000000000000        0x0 /usr/lib/gcc/arm-none-eabi/9.2.1/thumb/v6-m/nofp/crtend.o
 .data          0x0000000000000000        0x0 /usr/lib/gcc/arm-none-eabi/9.2.1/thumb/v6-m/nofp/crtend.o
 .bss           0x0000000000000000        0x0 /usr/lib/gcc/arm-none-eabi/9.2.1/thumb/v6-m/nofp/crtend.o
 .eh_frame      0x0000000000000000        0x4 /usr/lib/gcc/arm-none-eabi/9.2.1/thumb/v6-m/nofp/crtend.o
 .text          0x0000000000000000        0x0 /usr/lib/gcc/arm-none-eabi/9.2.1/thumb/v6-m/nofp/crtn.o
 .data          0x0000000000000000        0x0 /usr/lib/gcc/arm-none-eabi/9.2.1/thumb/v6-m/nofp/crtn.o
 .bss           0x0000000000000000        0x0 /usr/lib/gcc/arm-none-eabi/9.2.1/thumb/v6-m/nofp/crtn.o
 .init          0x0000000000000000        0x8 /usr/lib/gcc/arm-none-eabi/9.2.1/thumb/v6-m/nofp/crtn.o
 .fini          0x0000000000000000        0x8 /usr/lib/gcc/arm-none-eabi/9.2.1/thumb/v6-m/nofp/crtn.o
 .ARM.attributes
                0x0000000000000000       0x1e /usr/lib/gcc/arm-none-eabi/9.2.1/thumb/v6-m/nofp/crtn.o

Memory Configuration

Name             Origin             Length             Attributes
FLASH            0x0000000010000000 0x0000000000200000 xr
RAM              0x0000000020000000 0x0000000000040000 xrw
SCRATCH_X        0x0000000020040000 0x0000000000001000 xrw
SCRATCH_Y        0x0000000020041000 0x0000000000001000 xrw
*default*        0x0000000000000000 0xffffffffffffffff

Linker script and memory map

LOAD /usr/lib/gcc/arm-none-eabi/9.2.1/thumb/v6-m/nofp/crti.o
LOAD /usr/lib/gcc/arm-none-eabi/9.2.1/thumb/v6-m/nofp/crtbegin.o
LOAD /usr/lib/gcc/arm-none-eabi/9.2.1/../../../arm-none-eabi/lib/thumb/v6-m/nofp/crt0.o

.flash_begin    0x0000000010000000        0x0
                0x0000000010000000                __flash_binary_start = .

.boot2          0x0000000010000000      0x100
                0x0000000010000000                __boot2_start__ = .
 *(.boot2)
 .boot2         0x0000000010000000      0x100 /tmp/ccLCwxu1.o
                0x0000000010000100                __boot2_end__ = .
                0x0000000000000001                ASSERT (((__boot2_end__ - __boot2_start__) == 0x100), ERROR: Pico second stage bootloader must be 256 bytes in size)

.text           0x0000000010000100     0x6a90
                0x0000000010000100                __logical_binary_start = .
 *(.vectors)
 .vectors       0x0000000010000100       0xd4 CMakeFiles/HandGest.dir/home/anonxx/pico/pico-sdk/src/rp2_common/pico_standard_link/crt0.S.obj
                0x0000000010000100                __vectors
                0x00000000100001c0                isr_invalid
                0x00000000100001c2                isr_nmi
                0x00000000100001c4                isr_hardfault
                0x00000000100001c6                isr_svcall
                0x00000000100001c8                isr_pendsv
                0x00000000100001ca                isr_systick
                0x00000000100001cc                isr_irq30
                0x00000000100001cc                __unhandled_user_irq
                0x00000000100001cc                isr_irq13
                0x00000000100001cc                isr_irq27
                0x00000000100001cc                isr_irq31
                0x00000000100001cc                isr_irq5
                0x00000000100001cc                isr_irq11
                0x00000000100001cc                isr_irq23
                0x00000000100001cc                isr_irq18
                0x00000000100001cc                isr_irq28
                0x00000000100001cc                isr_irq19
                0x00000000100001cc                isr_irq0
                0x00000000100001cc                isr_irq6
                0x00000000100001cc                isr_irq22
                0x00000000100001cc                isr_irq17
                0x00000000100001cc                isr_irq14
                0x00000000100001cc                isr_irq2
                0x00000000100001cc                isr_irq10
                0x00000000100001cc                isr_irq8
                0x00000000100001cc                isr_irq24
                0x00000000100001cc                isr_irq1
                0x00000000100001cc                isr_irq7
                0x00000000100001cc                isr_irq21
                0x00000000100001cc                isr_irq20
                0x00000000100001cc                isr_irq15
                0x00000000100001cc                isr_irq25
                0x00000000100001cc                isr_irq4
                0x00000000100001cc                isr_irq16
                0x00000000100001cc                isr_irq29
                0x00000000100001cc                isr_irq26
                0x00000000100001cc                isr_irq3
                0x00000000100001cc                isr_irq12
                0x00000000100001cc                isr_irq9
                0x00000000100001d2                unhandled_user_irq_num_in_r0
 *(.binary_info_header)
 .binary_info_header
                0x00000000100001d4       0x14 CMakeFiles/HandGest.dir/home/anonxx/pico/pico-sdk/src/rp2_common/pico_standard_link/crt0.S.obj
                0x00000000100001e8                __binary_info_header_end = .
 *(.reset)
 .reset         0x00000000100001e8       0xa8 CMakeFiles/HandGest.dir/home/anonxx/pico/pico-sdk/src/rp2_common/pico_standard_link/crt0.S.obj
                0x00000000100001e8                _entry_point
                0x0000000010000266                __get_current_exception
 .reset         0x0000000010000290       0x30 CMakeFiles/HandGest.dir/home/anonxx/pico/pico-sdk/src/rp2_common/pico_standard_link/binary_info.c.obj
 *(.init)
 .init          0x00000000100002c0        0x4 /usr/lib/gcc/arm-none-eabi/9.2.1/thumb/v6-m/nofp/crti.o
                0x00000000100002c0                _init
 *(EXCLUDE_FILE(*libm.a: *libc.a:*lib_a-mem*.o *libgcc.a:) .text*)
 .text          0x00000000100002c4       0x98 /usr/lib/gcc/arm-none-eabi/9.2.1/thumb/v6-m/nofp/crtbegin.o
 .text.main     0x000000001000035c       0x14 CMakeFiles/HandGest.dir/HandGest.c.obj
                0x000000001000035c                main
 .text.gpio_set_function
                0x0000000010000370       0x30 CMakeFiles/HandGest.dir/home/anonxx/pico/pico-sdk/src/rp2_common/hardware_gpio/gpio.c.obj
                0x0000000010000370                gpio_set_function
 .text.hw_claim_lock
                0x00000000100003a0       0x18 CMakeFiles/HandGest.dir/home/anonxx/pico/pico-sdk/src/rp2_common/hardware_claim/claim.c.obj
                0x00000000100003a0                hw_claim_lock
 .text.hw_claim_unlock
                0x00000000100003b8       0x14 CMakeFiles/HandGest.dir/home/anonxx/pico/pico-sdk/src/rp2_common/hardware_claim/claim.c.obj
                0x00000000100003b8                hw_claim_unlock
 .text.hw_claim_or_assert
                0x00000000100003cc       0x36 CMakeFiles/HandGest.dir/home/anonxx/pico/pico-sdk/src/rp2_common/hardware_claim/claim.c.obj
                0x00000000100003cc                hw_claim_or_assert
 .text.hw_claim_unused_from_range
                0x0000000010000402       0x58 CMakeFiles/HandGest.dir/home/anonxx/pico/pico-sdk/src/rp2_common/hardware_claim/claim.c.obj
                0x0000000010000402                hw_claim_unused_from_range
 *fill*         0x000000001000045a        0x2 
 .text.spin_locks_reset
                0x000000001000045c       0x20 CMakeFiles/HandGest.dir/home/anonxx/pico/pico-sdk/src/rp2_common/hardware_sync/sync.c.obj
                0x000000001000045c                spin_locks_reset
 .text.next_striped_spin_lock_num
                0x000000001000047c       0x1c CMakeFiles/HandGest.dir/home/anonxx/pico/pico-sdk/src/rp2_common/hardware_sync/sync.c.obj
                0x000000001000047c                next_striped_spin_lock_num
 .text.spin_lock_claim_unused
                0x0000000010000498       0x20 CMakeFiles/HandGest.dir/home/anonxx/pico/pico-sdk/src/rp2_common/hardware_sync/sync.c.obj
                0x0000000010000498                spin_lock_claim_unused
 .text.running_on_fpga
                0x00000000100004b8       0x14 CMakeFiles/HandGest.dir/home/anonxx/pico/pico-sdk/src/rp2_common/pico_platform/platform.c.obj
                0x00000000100004b8                running_on_fpga
 .text.uart_set_baudrate
                0x00000000100004cc       0x64 CMakeFiles/HandGest.dir/home/anonxx/pico/pico-sdk/src/rp2_common/hardware_uart/uart.c.obj
                0x00000000100004cc                uart_set_baudrate
 .text.uart_set_translate_crlf
                0x0000000010000530       0x28 CMakeFiles/HandGest.dir/home/anonxx/pico/pico-sdk/src/rp2_common/hardware_uart/uart.c.obj
                0x0000000010000530                uart_set_translate_crlf
 .text.uart_init
                0x0000000010000558       0x80 CMakeFiles/HandGest.dir/home/anonxx/pico/pico-sdk/src/rp2_common/hardware_uart/uart.c.obj
                0x0000000010000558                uart_init
 .text.sev_callback
                0x00000000100005d8        0x8 CMakeFiles/HandGest.dir/home/anonxx/pico/pico-sdk/src/common/pico_time/time.c.obj
 .text.alarm_pool_post_alloc_init
                0x00000000100005e0       0x40 CMakeFiles/HandGest.dir/home/anonxx/pico/pico-sdk/src/common/pico_time/time.c.obj
 .text.timer_pool_entry_comparator
                0x0000000010000620       0x7c CMakeFiles/HandGest.dir/home/anonxx/pico/pico-sdk/src/common/pico_time/time.c.obj
                0x0000000010000620                timer_pool_entry_comparator
 .text.ph_add_child_node
                0x000000001000069c       0xa4 CMakeFiles/HandGest.dir/home/anonxx/pico/pico-sdk/src/common/pico_time/time.c.obj
 .text.ph_merge_nodes
                0x0000000010000740       0x3e CMakeFiles/HandGest.dir/home/anonxx/pico/pico-sdk/src/common/pico_time/time.c.obj
 *fill*         0x000000001000077e        0x2 
 .text.add_alarm_under_lock
                0x0000000010000780      0x174 CMakeFiles/HandGest.dir/home/anonxx/pico/pico-sdk/src/common/pico_time/time.c.obj
 .text.alarm_pool_alarm_callback
                0x00000000100008f4      0x32c CMakeFiles/HandGest.dir/home/anonxx/pico/pico-sdk/src/common/pico_time/time.c.obj
 .text.alarm_pool_init_default
                0x0000000010000c20       0x2c CMakeFiles/HandGest.dir/home/anonxx/pico/pico-sdk/src/common/pico_time/time.c.obj
                0x0000000010000c20                alarm_pool_init_default
 .text.alarm_pool_get_default
                0x0000000010000c4c       0x2c CMakeFiles/HandGest.dir/home/anonxx/pico/pico-sdk/src/common/pico_time/time.c.obj
                0x0000000010000c4c                alarm_pool_get_default
 .text.alarm_pool_add_alarm_at
                0x0000000010000c78      0x170 CMakeFiles/HandGest.dir/home/anonxx/pico/pico-sdk/src/common/pico_time/time.c.obj
                0x0000000010000c78                alarm_pool_add_alarm_at
 .text.alarm_pool_cancel_alarm
                0x0000000010000de8       0xec CMakeFiles/HandGest.dir/home/anonxx/pico/pico-sdk/src/common/pico_time/time.c.obj
                0x0000000010000de8                alarm_pool_cancel_alarm
 .text.best_effort_wfe_or_timeout
                0x0000000010000ed4       0x80 CMakeFiles/HandGest.dir/home/anonxx/pico/pico-sdk/src/common/pico_time/time.c.obj
                0x0000000010000ed4                best_effort_wfe_or_timeout
 .text.hardware_alarm_irq_handler
                0x0000000010000f54       0x8c CMakeFiles/HandGest.dir/home/anonxx/pico/pico-sdk/src/rp2_common/hardware_timer/timer.c.obj
 .text.hardware_alarm_claim
                0x0000000010000fe0       0x18 CMakeFiles/HandGest.dir/home/anonxx/pico/pico-sdk/src/rp2_common/hardware_timer/timer.c.obj
                0x0000000010000fe0                hardware_alarm_claim
 .text.time_us_64
                0x0000000010000ff8       0x18 CMakeFiles/HandGest.dir/home/anonxx/pico/pico-sdk/src/rp2_common/hardware_timer/timer.c.obj
                0x0000000010000ff8                time_us_64
 .text.hardware_alarm_set_callback
                0x0000000010001010       0x90 CMakeFiles/HandGest.dir/home/anonxx/pico/pico-sdk/src/rp2_common/hardware_timer/timer.c.obj
                0x0000000010001010                hardware_alarm_set_callback
 .text.hardware_alarm_set_target
                0x00000000100010a0       0xe8 CMakeFiles/HandGest.dir/home/anonxx/pico/pico-sdk/src/rp2_common/hardware_timer/timer.c.obj
                0x00000000100010a0                hardware_alarm_set_target
 .text.hardware_alarm_cancel
                0x0000000010001188       0x40 CMakeFiles/HandGest.dir/home/anonxx/pico/pico-sdk/src/rp2_common/hardware_timer/timer.c.obj
                0x0000000010001188                hardware_alarm_cancel
 .text.lock_init
                0x00000000100011c8       0x10 CMakeFiles/HandGest.dir/home/anonxx/pico/pico-sdk/src/common/pico_sync/lock_core.c.obj
                0x00000000100011c8                lock_init
 .text.mutex_init
                0x00000000100011d8       0x1a CMakeFiles/HandGest.dir/home/anonxx/pico/pico-sdk/src/common/pico_sync/mutex.c.obj
                0x00000000100011d8                mutex_init
 .text.critical_section_init_with_lock_num
                0x00000000100011f2        0xc CMakeFiles/HandGest.dir/home/anonxx/pico/pico-sdk/src/common/pico_sync/critical_section.c.obj
                0x00000000100011f2                critical_section_init_with_lock_num
 .text.critical_section_init
                0x00000000100011fe       0x14 CMakeFiles/HandGest.dir/home/anonxx/pico/pico-sdk/src/common/pico_sync/critical_section.c.obj
                0x00000000100011fe                critical_section_init
 *fill*         0x0000000010001212        0x2 
 .text.ph_add_child_node
                0x0000000010001214       0xa4 CMakeFiles/HandGest.dir/home/anonxx/pico/pico-sdk/src/common/pico_util/pheap.c.obj
 .text.ph_merge_nodes
                0x00000000100012b8       0x3e CMakeFiles/HandGest.dir/home/anonxx/pico/pico-sdk/src/common/pico_util/pheap.c.obj
 *fill*         0x00000000100012f6        0x2 
 .text.ph_clear
                0x00000000100012f8       0x70 CMakeFiles/HandGest.dir/home/anonxx/pico/pico-sdk/src/common/pico_util/pheap.c.obj
                0x00000000100012f8                ph_clear
 .text.ph_post_alloc_init
                0x0000000010001368        0xe CMakeFiles/HandGest.dir/home/anonxx/pico/pico-sdk/src/common/pico_util/pheap.c.obj
                0x0000000010001368                ph_post_alloc_init
 *fill*         0x0000000010001376        0x2 
 .text.ph_merge_two_pass
                0x0000000010001378       0xa8 CMakeFiles/HandGest.dir/home/anonxx/pico/pico-sdk/src/common/pico_util/pheap.c.obj
                0x0000000010001378                ph_merge_two_pass
 .text.ph_remove_any_head
                0x0000000010001420      0x108 CMakeFiles/HandGest.dir/home/anonxx/pico/pico-sdk/src/common/pico_util/pheap.c.obj
 .text.ph_remove_head
                0x0000000010001528       0x14 CMakeFiles/HandGest.dir/home/anonxx/pico/pico-sdk/src/common/pico_util/pheap.c.obj
                0x0000000010001528                ph_remove_head
 .text.ph_remove_and_free_node
                0x000000001000153c       0xf8 CMakeFiles/HandGest.dir/home/anonxx/pico/pico-sdk/src/common/pico_util/pheap.c.obj
                0x000000001000153c                ph_remove_and_free_node
 .text.runtime_init
                0x0000000010001634       0xcc CMakeFiles/HandGest.dir/home/anonxx/pico/pico-sdk/src/rp2_common/pico_runtime/runtime.c.obj
                0x0000000010001634                runtime_init
 .text._exit    0x0000000010001700        0x4 CMakeFiles/HandGest.dir/home/anonxx/pico/pico-sdk/src/rp2_common/pico_runtime/runtime.c.obj
                0x0000000010001700                _exit
 .text.exit     0x0000000010001704        0x6 CMakeFiles/HandGest.dir/home/anonxx/pico/pico-sdk/src/rp2_common/pico_runtime/runtime.c.obj
                0x0000000010001704                exit
 *fill*         0x000000001000170a        0x2 
 .text.__assert_func
                0x000000001000170c       0x3c CMakeFiles/HandGest.dir/home/anonxx/pico/pico-sdk/src/rp2_common/pico_runtime/runtime.c.obj
                0x000000001000170c                __assert_func
 .text.panic    0x0000000010001748       0x30 CMakeFiles/HandGest.dir/home/anonxx/pico/pico-sdk/src/rp2_common/pico_runtime/runtime.c.obj
                0x0000000010001748                panic
 .text.clock_configure
                0x0000000010001778       0xe8 CMakeFiles/HandGest.dir/home/anonxx/pico/pico-sdk/src/rp2_common/hardware_clocks/clocks.c.obj
                0x0000000010001778                clock_configure
 .text.clocks_init
                0x0000000010001860      0x124 CMakeFiles/HandGest.dir/home/anonxx/pico/pico-sdk/src/rp2_common/hardware_clocks/clocks.c.obj
                0x0000000010001860                clocks_init
 .text.clock_get_hz
                0x0000000010001984        0xc CMakeFiles/HandGest.dir/home/anonxx/pico/pico-sdk/src/rp2_common/hardware_clocks/clocks.c.obj
                0x0000000010001984                clock_get_hz
 .text.watchdog_start_tick
                0x0000000010001990       0x10 CMakeFiles/HandGest.dir/home/anonxx/pico/pico-sdk/src/rp2_common/hardware_watchdog/watchdog.c.obj
                0x0000000010001990                watchdog_start_tick
 .text.watchdog_update
                0x00000000100019a0       0x14 CMakeFiles/HandGest.dir/home/anonxx/pico/pico-sdk/src/rp2_common/hardware_watchdog/watchdog.c.obj
                0x00000000100019a0                watchdog_update
 .text._watchdog_enable
                0x00000000100019b4       0x70 CMakeFiles/HandGest.dir/home/anonxx/pico/pico-sdk/src/rp2_common/hardware_watchdog/watchdog.c.obj
                0x00000000100019b4                _watchdog_enable
 .text.watchdog_reboot
                0x0000000010001a24       0x48 CMakeFiles/HandGest.dir/home/anonxx/pico/pico-sdk/src/rp2_common/hardware_watchdog/watchdog.c.obj
                0x0000000010001a24                watchdog_reboot
 .text.xosc_init
                0x0000000010001a6c       0x28 CMakeFiles/HandGest.dir/home/anonxx/pico/pico-sdk/src/rp2_common/hardware_xosc/xosc.c.obj
                0x0000000010001a6c                xosc_init
 .text.pll_init
                0x0000000010001a94       0xd0 CMakeFiles/HandGest.dir/home/anonxx/pico/pico-sdk/src/rp2_common/hardware_pll/pll.c.obj
                0x0000000010001a94                pll_init
 .text.set_raw_irq_handler_and_unlock
                0x0000000010001b64       0x28 CMakeFiles/HandGest.dir/home/anonxx/pico/pico-sdk/src/rp2_common/hardware_irq/irq.c.obj
 .text.make_branch
                0x0000000010001b8c       0x34 CMakeFiles/HandGest.dir/home/anonxx/pico/pico-sdk/src/rp2_common/hardware_irq/irq.c.obj
 .text.insert_branch_and_link
                0x0000000010001bc0       0x40 CMakeFiles/HandGest.dir/home/anonxx/pico/pico-sdk/src/rp2_common/hardware_irq/irq.c.obj
 .text.irq_is_enabled
                0x0000000010001c00       0x18 CMakeFiles/HandGest.dir/home/anonxx/pico/pico-sdk/src/rp2_common/hardware_irq/irq.c.obj
                0x0000000010001c00                irq_is_enabled
 .text.irq_set_mask_enabled
                0x0000000010001c18       0x20 CMakeFiles/HandGest.dir/home/anonxx/pico/pico-sdk/src/rp2_common/hardware_irq/irq.c.obj
                0x0000000010001c18                irq_set_mask_enabled
 .text.irq_set_enabled
                0x0000000010001c38        0xe CMakeFiles/HandGest.dir/home/anonxx/pico/pico-sdk/src/rp2_common/hardware_irq/irq.c.obj
                0x0000000010001c38                irq_set_enabled
 *fill*         0x0000000010001c46        0x2 
 .text.irq_set_pending
                0x0000000010001c48       0x10 CMakeFiles/HandGest.dir/home/anonxx/pico/pico-sdk/src/rp2_common/hardware_irq/irq.c.obj
                0x0000000010001c48                irq_set_pending
 .text.irq_get_vtable_handler
                0x0000000010001c58       0x10 CMakeFiles/HandGest.dir/home/anonxx/pico/pico-sdk/src/rp2_common/hardware_irq/irq.c.obj
                0x0000000010001c58                irq_get_vtable_handler
 .text.irq_set_exclusive_handler
                0x0000000010001c68       0x54 CMakeFiles/HandGest.dir/home/anonxx/pico/pico-sdk/src/rp2_common/hardware_irq/irq.c.obj
                0x0000000010001c68                irq_set_exclusive_handler
 .text.irq_remove_handler
                0x0000000010001cbc      0x1ac CMakeFiles/HandGest.dir/home/anonxx/pico/pico-sdk/src/rp2_common/hardware_irq/irq.c.obj
                0x0000000010001cbc                irq_remove_handler
 .text.irq_set_priority
                0x0000000010001e68       0x28 CMakeFiles/HandGest.dir/home/anonxx/pico/pico-sdk/src/rp2_common/hardware_irq/irq.c.obj
                0x0000000010001e68                irq_set_priority
 .text.irq_add_tail_to_free_list
                0x0000000010001e90       0xf0 CMakeFiles/HandGest.dir/home/anonxx/pico/pico-sdk/src/rp2_common/hardware_irq/irq.c.obj
                0x0000000010001e90                irq_add_tail_to_free_list
 .text.irq_init_priorities
                0x0000000010001f80       0x16 CMakeFiles/HandGest.dir/home/anonxx/pico/pico-sdk/src/rp2_common/hardware_irq/irq.c.obj
                0x0000000010001f80                irq_init_priorities
 .text._out_null
                0x0000000010001f96        0x2 CMakeFiles/HandGest.dir/home/anonxx/pico/pico-sdk/src/rp2_common/pico_printf/printf.c.obj
 .text._out_fct
                0x0000000010001f98        0xe CMakeFiles/HandGest.dir/home/anonxx/pico/pico-sdk/src/rp2_common/pico_printf/printf.c.obj
 .text._atoi    0x0000000010001fa6       0x24 CMakeFiles/HandGest.dir/home/anonxx/pico/pico-sdk/src/rp2_common/pico_printf/printf.c.obj
 .text._out_rev
                0x0000000010001fca       0xae CMakeFiles/HandGest.dir/home/anonxx/pico/pico-sdk/src/rp2_common/pico_printf/printf.c.obj
 .text._ntoa_format
                0x0000000010002078      0x110 CMakeFiles/HandGest.dir/home/anonxx/pico/pico-sdk/src/rp2_common/pico_printf/printf.c.obj
 .text._ntoa_long
                0x0000000010002188       0xbc CMakeFiles/HandGest.dir/home/anonxx/pico/pico-sdk/src/rp2_common/pico_printf/printf.c.obj
 .text._ntoa_long_long
                0x0000000010002244       0xe2 CMakeFiles/HandGest.dir/home/anonxx/pico/pico-sdk/src/rp2_common/pico_printf/printf.c.obj
 *fill*         0x0000000010002326        0x2 
 .text._etoa    0x0000000010002328      0x40c CMakeFiles/HandGest.dir/home/anonxx/pico/pico-sdk/src/rp2_common/pico_printf/printf.c.obj
 .text._ftoa    0x0000000010002734      0x354 CMakeFiles/HandGest.dir/home/anonxx/pico/pico-sdk/src/rp2_common/pico_printf/printf.c.obj
 .text._vsnprintf
                0x0000000010002a88      0x628 CMakeFiles/HandGest.dir/home/anonxx/pico/pico-sdk/src/rp2_common/pico_printf/printf.c.obj
 .text.vfctprintf
                0x00000000100030b0       0x20 CMakeFiles/HandGest.dir/home/anonxx/pico/pico-sdk/src/rp2_common/pico_printf/printf.c.obj
                0x00000000100030b0                vfctprintf
 .text          0x00000000100030d0       0x10 CMakeFiles/HandGest.dir/home/anonxx/pico/pico-sdk/src/rp2_common/pico_bit_ops/bit_ops_aeabi.S.obj
 .text.rom_func_lookup
                0x00000000100030e0       0x10 CMakeFiles/HandGest.dir/home/anonxx/pico/pico-sdk/src/rp2_common/pico_bootrom/bootrom.c.obj
                0x00000000100030e0                rom_func_lookup
 .text.rom_data_lookup
                0x00000000100030f0       0x10 CMakeFiles/HandGest.dir/home/anonxx/pico/pico-sdk/src/rp2_common/pico_bootrom/bootrom.c.obj
                0x00000000100030f0                rom_data_lookup
 .text.rom_funcs_lookup
                0x0000000010003100       0x36 CMakeFiles/HandGest.dir/home/anonxx/pico/pico-sdk/src/rp2_common/pico_bootrom/bootrom.c.obj
                0x0000000010003100                rom_funcs_lookup
 *fill*         0x0000000010003136        0x2 
 .text.__wrap___aeabi_idiv
                0x0000000010003138       0x58 CMakeFiles/HandGest.dir/home/anonxx/pico/pico-sdk/src/rp2_common/pico_divider/divider.S.obj
                0x0000000010003138                __wrap___aeabi_idivmod
                0x0000000010003138                divmod_s32s32
                0x0000000010003138                div_s32s32
                0x0000000010003138                __wrap___aeabi_idiv
                0x0000000010003140                divmod_s32s32_unsafe
                0x000000001000316c                divmod_s32s32_savestate
 .text.__wrap___aeabi_uidiv
                0x0000000010003190       0x54 CMakeFiles/HandGest.dir/home/anonxx/pico/pico-sdk/src/rp2_common/pico_divider/divider.S.obj
                0x0000000010003190                __wrap___aeabi_uidiv
                0x0000000010003190                __wrap___aeabi_uidivmod
                0x0000000010003190                div_u32u32
                0x0000000010003190                divmod_u32u32
                0x0000000010003198                divmod_u32u32_unsafe
                0x00000000100031c0                divmod_u32u32_savestate
 .text.__wrap___aeabi_ldiv
                0x00000000100031e4      0x430 CMakeFiles/HandGest.dir/home/anonxx/pico/pico-sdk/src/rp2_common/pico_divider/divider.S.obj
                0x00000000100031e4                div_s64s64
                0x00000000100031e4                divmod_s64s64
                0x00000000100031e4                __wrap___aeabi_ldivmod
                0x000000001000321c                div_u64u64
                0x000000001000321c                divmod_u64u64
                0x000000001000321c                __wrap___aeabi_uldivmod
                0x000000001000322c                divmod_u64u64_savestate
                0x0000000010003254                divmod_s64s64_unsafe
                0x00000000100032dc                divmod_u64u64_unsafe
 .text.__wrap___aeabi_darithmetic
                0x0000000010003614       0x54 CMakeFiles/HandGest.dir/home/anonxx/pico/pico-sdk/src/rp2_common/pico_double/double_aeabi.S.obj
                0x0000000010003614                __wrap___aeabi_drsub
                0x000000001000361a                __wrap___aeabi_dsub
                0x000000001000362c                __wrap___aeabi_dadd
                0x000000001000363e                __wrap___aeabi_ddiv
                0x0000000010003650                __wrap___aeabi_dmul
 .text.__wrap___aeabi_cdcmple
                0x0000000010003668       0x6c CMakeFiles/HandGest.dir/home/anonxx/pico/pico-sdk/src/rp2_common/pico_double/double_aeabi.S.obj
                0x0000000010003668                __wrap___aeabi_cdrcmple
                0x0000000010003678                __wrap___aeabi_cdcmple
                0x0000000010003678                __wrap___aeabi_cdcmpeq
 .text.__wrap___aeabi_dcmplt
                0x00000000100036d4        0xc CMakeFiles/HandGest.dir/home/anonxx/pico/pico-sdk/src/rp2_common/pico_double/double_aeabi.S.obj
                0x00000000100036d4                __wrap___aeabi_dcmplt
 .text.__wrap___aeabi_dcmple
                0x00000000100036e0       0x10 CMakeFiles/HandGest.dir/home/anonxx/pico/pico-sdk/src/rp2_common/pico_double/double_aeabi.S.obj
                0x00000000100036e0                __wrap___aeabi_dcmple
 .text.__wrap___aeabi_dcmpge
                0x00000000100036f0       0x10 CMakeFiles/HandGest.dir/home/anonxx/pico/pico-sdk/src/rp2_common/pico_double/double_aeabi.S.obj
                0x00000000100036f0                __wrap___aeabi_dcmpge
 .text.__wrap___aeabi_dcmpgt
                0x0000000010003700        0xa CMakeFiles/HandGest.dir/home/anonxx/pico/pico-sdk/src/rp2_common/pico_double/double_aeabi.S.obj
                0x0000000010003700                __wrap___aeabi_dcmpgt
 .text.__wrap___aeabi_dcmpun
                0x000000001000370a       0x1c CMakeFiles/HandGest.dir/home/anonxx/pico/pico-sdk/src/rp2_common/pico_double/double_aeabi.S.obj
                0x000000001000370a                __wrap___aeabi_dcmpun
 *fill*         0x0000000010003726        0x2 
 .text.__wrap___aeabi_i2d
                0x0000000010003728       0x38 CMakeFiles/HandGest.dir/home/anonxx/pico/pico-sdk/src/rp2_common/pico_double/double_aeabi.S.obj
                0x0000000010003728                __wrap___aeabi_ui2d
                0x0000000010003730                __wrap___aeabi_i2d
 .text.__wrap___aeabi_d2iz
                0x0000000010003760       0x48 CMakeFiles/HandGest.dir/home/anonxx/pico/pico-sdk/src/rp2_common/pico_double/double_aeabi.S.obj
                0x0000000010003760                __wrap___aeabi_d2iz
                0x0000000010003760                double2int_z
 .text.__wrap___aeabi_d2uiz
                0x00000000100037a8       0x18 CMakeFiles/HandGest.dir/home/anonxx/pico/pico-sdk/src/rp2_common/pico_double/double_aeabi.S.obj
                0x00000000100037a8                double2uint
                0x00000000100037a8                __wrap___aeabi_d2uiz
 .text.__aeabi_double_init
                0x00000000100037c0       0xb4 CMakeFiles/HandGest.dir/home/anonxx/pico/pico-sdk/src/rp2_common/pico_double/double_init_rom.c.obj
                0x00000000100037c0                __aeabi_double_init
 .text.double_table_shim_on_use_helper
                0x0000000010003874       0x34 CMakeFiles/HandGest.dir/home/anonxx/pico/pico-sdk/src/rp2_common/pico_double/double_v1_rom_shim.S.obj
                0x0000000010003874                double_table_shim_on_use_helper
 .text.__wrap___aeabi_dsub
                0x00000000100038a8       0x10 CMakeFiles/HandGest.dir/home/anonxx/pico/pico-sdk/src/rp2_common/pico_double/double_v1_rom_shim.S.obj
                0x00000000100038a8                drsub_shim
                0x00000000100038ae                dsub_shim
 .text.dadd_shim
                0x00000000100038b8      0x15c CMakeFiles/HandGest.dir/home/anonxx/pico/pico-sdk/src/rp2_common/pico_double/double_v1_rom_shim.S.obj
                0x00000000100038b8                dadd_shim
 .text.dmul_shim
                0x0000000010003a14      0x15c CMakeFiles/HandGest.dir/home/anonxx/pico/pico-sdk/src/rp2_common/pico_double/double_v1_rom_shim.S.obj
                0x0000000010003a14                dmul_shim
 .text.ddiv_shim
                0x0000000010003b70      0x1b0 CMakeFiles/HandGest.dir/home/anonxx/pico/pico-sdk/src/rp2_common/pico_double/double_v1_rom_shim.S.obj
                0x0000000010003b70                ddiv_shim
 .text.dcordic_rot_step
                0x0000000010003d20       0x7c CMakeFiles/HandGest.dir/home/anonxx/pico/pico-sdk/src/rp2_common/pico_double/double_v1_rom_shim.S.obj
                0x0000000010003d20                dcordic_rot_step
 .text.double2uint_shim
                0x0000000010003d9c        0xe CMakeFiles/HandGest.dir/home/anonxx/pico/pico-sdk/src/rp2_common/pico_double/double_v1_rom_shim.S.obj
                0x0000000010003d9c                double2uint_shim
                0x0000000010003d9e                double2ufix_shim
 *fill*         0x0000000010003daa        0x2 
 .text.double2uint64_shim
                0x0000000010003dac       0x6c CMakeFiles/HandGest.dir/home/anonxx/pico/pico-sdk/src/rp2_common/pico_double/double_v1_rom_shim.S.obj
                0x0000000010003dac                double2uint64_shim
                0x0000000010003dae                double2ufix64_shim
                0x0000000010003dc8                d2fix_a
 .text.dunpacks
                0x0000000010003e18       0x3c CMakeFiles/HandGest.dir/home/anonxx/pico/pico-sdk/src/rp2_common/pico_double/double_v1_rom_shim.S.obj
                0x0000000010003e18                dunpacks
 .text.__aeabi_lmul
                0x0000000010003e54       0x32 CMakeFiles/HandGest.dir/home/anonxx/pico/pico-sdk/src/rp2_common/pico_int64_ops/pico_int64_ops_aeabi.S.obj
                0x0000000010003e54                __wrap___aeabi_lmul
 *fill*         0x0000000010003e86        0x2 
 .text.__aeabi_float_init
                0x0000000010003e88       0xfc CMakeFiles/HandGest.dir/home/anonxx/pico/pico-sdk/src/rp2_common/pico_float/float_init_rom.c.obj
                0x0000000010003e88                __aeabi_float_init
 .text.float_table_shim_on_use_helper
                0x0000000010003f84       0x34 CMakeFiles/HandGest.dir/home/anonxx/pico/pico-sdk/src/rp2_common/pico_float/float_v1_rom_shim.S.obj
                0x0000000010003f84                float_table_shim_on_use_helper
 .text          0x0000000010003fb8       0x10 CMakeFiles/HandGest.dir/home/anonxx/pico/pico-sdk/src/rp2_common/pico_mem_ops/mem_ops_aeabi.S.obj
                0x0000000010003fb8                __aeabi_mem_init
 .text.memset   0x0000000010003fc8        0xc CMakeFiles/HandGest.dir/home/anonxx/pico/pico-sdk/src/rp2_common/pico_mem_ops/mem_ops_aeabi.S.obj
                0x0000000010003fc8                __wrap_memset
 .text.memcpy   0x0000000010003fd4        0xc CMakeFiles/HandGest.dir/home/anonxx/pico/pico-sdk/src/rp2_common/pico_mem_ops/mem_ops_aeabi.S.obj
                0x0000000010003fd4                __wrap___aeabi_memcpy
                0x0000000010003fd4                __wrap_memcpy
 .text.stdio_out_chars_crlf
                0x0000000010003fe0       0x80 CMakeFiles/HandGest.dir/home/anonxx/pico/pico-sdk/src/rp2_common/pico_stdio/stdio.c.obj
 .text.stdio_stack_buffer_flush
                0x0000000010004060       0x44 CMakeFiles/HandGest.dir/home/anonxx/pico/pico-sdk/src/rp2_common/pico_stdio/stdio.c.obj
 .text.stdio_buffered_printer
                0x00000000100040a4       0x20 CMakeFiles/HandGest.dir/home/anonxx/pico/pico-sdk/src/rp2_common/pico_stdio/stdio.c.obj
 .text.stdout_serialize_begin
                0x00000000100040c4       0x2c CMakeFiles/HandGest.dir/home/anonxx/pico/pico-sdk/src/rp2_common/pico_stdio/stdio.c.obj
                0x00000000100040c4                stdout_serialize_begin
 .text.stdout_serialize_end
                0x00000000100040f0       0x10 CMakeFiles/HandGest.dir/home/anonxx/pico/pico-sdk/src/rp2_common/pico_stdio/stdio.c.obj
                0x00000000100040f0                stdout_serialize_end
 .text.stdio_put_string
                0x0000000010004100       0x84 CMakeFiles/HandGest.dir/home/anonxx/pico/pico-sdk/src/rp2_common/pico_stdio/stdio.c.obj
 .text.stdio_set_driver_enabled
                0x0000000010004184       0x38 CMakeFiles/HandGest.dir/home/anonxx/pico/pico-sdk/src/rp2_common/pico_stdio/stdio.c.obj
                0x0000000010004184                stdio_set_driver_enabled
 .text.stdio_flush
                0x00000000100041bc       0x20 CMakeFiles/HandGest.dir/home/anonxx/pico/pico-sdk/src/rp2_common/pico_stdio/stdio.c.obj
                0x00000000100041bc                stdio_flush
 .text.__wrap_puts
                0x00000000100041dc       0x1c CMakeFiles/HandGest.dir/home/anonxx/pico/pico-sdk/src/rp2_common/pico_stdio/stdio.c.obj
                0x00000000100041dc                __wrap_puts
 .text.__wrap_vprintf
                0x00000000100041f8       0x44 CMakeFiles/HandGest.dir/home/anonxx/pico/pico-sdk/src/rp2_common/pico_stdio/stdio.c.obj
                0x00000000100041f8                __wrap_vprintf
 .text.__wrap_printf
                0x000000001000423c       0x18 CMakeFiles/HandGest.dir/home/anonxx/pico/pico-sdk/src/rp2_common/pico_stdio/stdio.c.obj
                0x000000001000423c                __wrap_printf
 .text.stdio_init_all
                0x0000000010004254        0xc CMakeFiles/HandGest.dir/home/anonxx/pico/pico-sdk/src/rp2_common/pico_stdio/stdio.c.obj
                0x0000000010004254                stdio_init_all
 .text.stdio_uart_out_chars
                0x0000000010004260       0x74 CMakeFiles/HandGest.dir/home/anonxx/pico/pico-sdk/src/rp2_common/pico_stdio_uart/stdio_uart.c.obj
 .text.stdio_uart_in_chars
                0x00000000100042d4       0x54 CMakeFiles/HandGest.dir/home/anonxx/pico/pico-sdk/src/rp2_common/pico_stdio_uart/stdio_uart.c.obj
                0x00000000100042d4                stdio_uart_in_chars
 .text.stdio_uart_init_full
                0x0000000010004328       0x3c CMakeFiles/HandGest.dir/home/anonxx/pico/pico-sdk/src/rp2_common/pico_stdio_uart/stdio_uart.c.obj
                0x0000000010004328                stdio_uart_init_full
 .text.stdio_uart_init
                0x0000000010004364       0x28 CMakeFiles/HandGest.dir/home/anonxx/pico/pico-sdk/src/rp2_common/pico_stdio_uart/stdio_uart.c.obj
                0x0000000010004364                stdio_uart_init
 .text.resetd_init
                0x000000001000438c        0x2 CMakeFiles/HandGest.dir/home/anonxx/pico/pico-sdk/src/rp2_common/pico_stdio_usb/reset_interface.c.obj
 *fill*         0x000000001000438e        0x2 
 .text.resetd_reset
                0x0000000010004390        0xc CMakeFiles/HandGest.dir/home/anonxx/pico/pico-sdk/src/rp2_common/pico_stdio_usb/reset_interface.c.obj
 .text.resetd_open
                0x000000001000439c       0x34 CMakeFiles/HandGest.dir/home/anonxx/pico/pico-sdk/src/rp2_common/pico_stdio_usb/reset_interface.c.obj
 .text.resetd_control_complete_cb
                0x00000000100043d0        0x4 CMakeFiles/HandGest.dir/home/anonxx/pico/pico-sdk/src/rp2_common/pico_stdio_usb/reset_interface.c.obj
 .text.resetd_xfer_cb
                0x00000000100043d4        0x4 CMakeFiles/HandGest.dir/home/anonxx/pico/pico-sdk/src/rp2_common/pico_stdio_usb/reset_interface.c.obj
 .text.resetd_control_request_cb
                0x00000000100043d8       0x64 CMakeFiles/HandGest.dir/home/anonxx/pico/pico-sdk/src/rp2_common/pico_stdio_usb/reset_interface.c.obj
 .text.usbd_app_driver_get_cb
                0x000000001000443c        0xc CMakeFiles/HandGest.dir/home/anonxx/pico/pico-sdk/src/rp2_common/pico_stdio_usb/reset_interface.c.obj
                0x000000001000443c                usbd_app_driver_get_cb
 .text.tud_cdc_line_coding_cb
                0x0000000010004448       0x34 CMakeFiles/HandGest.dir/home/anonxx/pico/pico-sdk/src/rp2_common/pico_stdio_usb/reset_interface.c.obj
                0x0000000010004448                tud_cdc_line_coding_cb
 .text.stdio_usb_in_chars
                0x000000001000447c       0x70 CMakeFiles/HandGest.dir/home/anonxx/pico/pico-sdk/src/rp2_common/pico_stdio_usb/stdio_usb.c.obj
                0x000000001000447c                stdio_usb_in_chars
 .text.low_priority_worker_irq
                0x00000000100044ec       0x20 CMakeFiles/HandGest.dir/home/anonxx/pico/pico-sdk/src/rp2_common/pico_stdio_usb/stdio_usb.c.obj
 .text.stdio_usb_out_chars
                0x000000001000450c       0xd4 CMakeFiles/HandGest.dir/home/anonxx/pico/pico-sdk/src/rp2_common/pico_stdio_usb/stdio_usb.c.obj
 .text.timer_task
                0x00000000100045e0       0x10 CMakeFiles/HandGest.dir/home/anonxx/pico/pico-sdk/src/rp2_common/pico_stdio_usb/stdio_usb.c.obj
 .text.stdio_usb_init
                0x00000000100045f0       0xb8 CMakeFiles/HandGest.dir/home/anonxx/pico/pico-sdk/src/rp2_common/pico_stdio_usb/stdio_usb.c.obj
                0x00000000100045f0                stdio_usb_init
 .text.tud_descriptor_device_cb
                0x00000000100046a8        0x8 CMakeFiles/HandGest.dir/home/anonxx/pico/pico-sdk/src/rp2_common/pico_stdio_usb/stdio_usb_descriptors.c.obj
                0x00000000100046a8                tud_descriptor_device_cb
 .text.tud_descriptor_configuration_cb
                0x00000000100046b0        0x8 CMakeFiles/HandGest.dir/home/anonxx/pico/pico-sdk/src/rp2_common/pico_stdio_usb/stdio_usb_descriptors.c.obj
                0x00000000100046b0                tud_descriptor_configuration_cb
 .text.tud_descriptor_string_cb
                0x00000000100046b8       0x50 CMakeFiles/HandGest.dir/home/anonxx/pico/pico-sdk/src/rp2_common/pico_stdio_usb/stdio_usb_descriptors.c.obj
                0x00000000100046b8                tud_descriptor_string_cb
 .text.hw_endpoint_get_by_addr
                0x0000000010004708       0x1c CMakeFiles/HandGest.dir/home/anonxx/pico/pico-sdk/lib/tinyusb/src/portable/raspberrypi/rp2040/dcd_rp2040.c.obj
 .text.reset_ep0
                0x0000000010004724       0x2c CMakeFiles/HandGest.dir/home/anonxx/pico/pico-sdk/lib/tinyusb/src/portable/raspberrypi/rp2040/dcd_rp2040.c.obj
 .text._hw_endpoint_alloc
                0x0000000010004750       0x7c CMakeFiles/HandGest.dir/home/anonxx/pico/pico-sdk/lib/tinyusb/src/portable/raspberrypi/rp2040/dcd_rp2040.c.obj
 .text._hw_endpoint_init
                0x00000000100047cc       0xbc CMakeFiles/HandGest.dir/home/anonxx/pico/pico-sdk/lib/tinyusb/src/portable/raspberrypi/rp2040/dcd_rp2040.c.obj
 .text.hw_endpoint_init
                0x0000000010004888       0x18 CMakeFiles/HandGest.dir/home/anonxx/pico/pico-sdk/lib/tinyusb/src/portable/raspberrypi/rp2040/dcd_rp2040.c.obj
 .text.hw_handle_buff_status
                0x00000000100048a0       0xbc CMakeFiles/HandGest.dir/home/anonxx/pico/pico-sdk/lib/tinyusb/src/portable/raspberrypi/rp2040/dcd_rp2040.c.obj
 .text.dcd_rp2040_irq
                0x000000001000495c       0x8c CMakeFiles/HandGest.dir/home/anonxx/pico/pico-sdk/lib/tinyusb/src/portable/raspberrypi/rp2040/dcd_rp2040.c.obj
 .text.hw_endpoint_xfer
                0x00000000100049e8       0x18 CMakeFiles/HandGest.dir/home/anonxx/pico/pico-sdk/lib/tinyusb/src/portable/raspberrypi/rp2040/dcd_rp2040.c.obj
 .text.ep0_0len_status
                0x0000000010004a00       0x14 CMakeFiles/HandGest.dir/home/anonxx/pico/pico-sdk/lib/tinyusb/src/portable/raspberrypi/rp2040/dcd_rp2040.c.obj
 .text._hw_endpoint_stall
                0x0000000010004a14       0x54 CMakeFiles/HandGest.dir/home/anonxx/pico/pico-sdk/lib/tinyusb/src/portable/raspberrypi/rp2040/dcd_rp2040.c.obj
 .text.hw_endpoint_stall
                0x0000000010004a68        0xc CMakeFiles/HandGest.dir/home/anonxx/pico/pico-sdk/lib/tinyusb/src/portable/raspberrypi/rp2040/dcd_rp2040.c.obj
 .text._hw_endpoint_clear_stall
                0x0000000010004a74       0x34 CMakeFiles/HandGest.dir/home/anonxx/pico/pico-sdk/lib/tinyusb/src/portable/raspberrypi/rp2040/dcd_rp2040.c.obj
 .text.hw_endpoint_clear_stall
                0x0000000010004aa8        0xc CMakeFiles/HandGest.dir/home/anonxx/pico/pico-sdk/lib/tinyusb/src/portable/raspberrypi/rp2040/dcd_rp2040.c.obj
 .text.dcd_int_enable
                0x0000000010004ab4       0x2c CMakeFiles/HandGest.dir/home/anonxx/pico/pico-sdk/lib/tinyusb/src/portable/raspberrypi/rp2040/dcd_rp2040.c.obj
                0x0000000010004ab4                dcd_int_enable
 .text.dcd_set_address
                0x0000000010004ae0       0x30 CMakeFiles/HandGest.dir/home/anonxx/pico/pico-sdk/lib/tinyusb/src/portable/raspberrypi/rp2040/dcd_rp2040.c.obj
                0x0000000010004ae0                dcd_set_address
 .text.dcd_connect
                0x0000000010004b10       0x30 CMakeFiles/HandGest.dir/home/anonxx/pico/pico-sdk/lib/tinyusb/src/portable/raspberrypi/rp2040/dcd_rp2040.c.obj
                0x0000000010004b10                dcd_connect
 .text.dcd_init
                0x0000000010004b40       0x90 CMakeFiles/HandGest.dir/home/anonxx/pico/pico-sdk/lib/tinyusb/src/portable/raspberrypi/rp2040/dcd_rp2040.c.obj
                0x0000000010004b40                dcd_init
 .text.dcd_edpt0_status_complete
                0x0000000010004bd0       0x44 CMakeFiles/HandGest.dir/home/anonxx/pico/pico-sdk/lib/tinyusb/src/portable/raspberrypi/rp2040/dcd_rp2040.c.obj
                0x0000000010004bd0                dcd_edpt0_status_complete
 .text.dcd_edpt_open
                0x0000000010004c14       0x40 CMakeFiles/HandGest.dir/home/anonxx/pico/pico-sdk/lib/tinyusb/src/portable/raspberrypi/rp2040/dcd_rp2040.c.obj
                0x0000000010004c14                dcd_edpt_open
 .text.dcd_edpt_xfer
                0x0000000010004c54       0x34 CMakeFiles/HandGest.dir/home/anonxx/pico/pico-sdk/lib/tinyusb/src/portable/raspberrypi/rp2040/dcd_rp2040.c.obj
                0x0000000010004c54                dcd_edpt_xfer
 .text.dcd_edpt_stall
                0x0000000010004c88       0x28 CMakeFiles/HandGest.dir/home/anonxx/pico/pico-sdk/lib/tinyusb/src/portable/raspberrypi/rp2040/dcd_rp2040.c.obj
                0x0000000010004c88                dcd_edpt_stall
 .text.dcd_edpt_clear_stall
                0x0000000010004cb0       0x28 CMakeFiles/HandGest.dir/home/anonxx/pico/pico-sdk/lib/tinyusb/src/portable/raspberrypi/rp2040/dcd_rp2040.c.obj
                0x0000000010004cb0                dcd_edpt_clear_stall
 .text.rp2040_usb_init
                0x0000000010004cd8       0x50 CMakeFiles/HandGest.dir/home/anonxx/pico/pico-sdk/lib/tinyusb/src/portable/raspberrypi/rp2040/rp2040_usb.c.obj
                0x0000000010004cd8                rp2040_usb_init
 .text.hw_endpoint_reset_transfer
                0x0000000010004d28       0x14 CMakeFiles/HandGest.dir/home/anonxx/pico/pico-sdk/lib/tinyusb/src/portable/raspberrypi/rp2040/rp2040_usb.c.obj
                0x0000000010004d28                hw_endpoint_reset_transfer
 .text._hw_endpoint_buffer_control_update32
                0x0000000010004d3c       0x54 CMakeFiles/HandGest.dir/home/anonxx/pico/pico-sdk/lib/tinyusb/src/portable/raspberrypi/rp2040/rp2040_usb.c.obj
                0x0000000010004d3c                _hw_endpoint_buffer_control_update32
 .text._hw_endpoint_start_next_buffer
                0x0000000010004d90       0x5a CMakeFiles/HandGest.dir/home/anonxx/pico/pico-sdk/lib/tinyusb/src/portable/raspberrypi/rp2040/rp2040_usb.c.obj
                0x0000000010004d90                _hw_endpoint_start_next_buffer
 .text._hw_endpoint_xfer_start
                0x0000000010004dea       0x46 CMakeFiles/HandGest.dir/home/anonxx/pico/pico-sdk/lib/tinyusb/src/portable/raspberrypi/rp2040/rp2040_usb.c.obj
                0x0000000010004dea                _hw_endpoint_xfer_start
 .text._hw_endpoint_xfer_sync
                0x0000000010004e30       0x74 CMakeFiles/HandGest.dir/home/anonxx/pico/pico-sdk/lib/tinyusb/src/portable/raspberrypi/rp2040/rp2040_usb.c.obj
                0x0000000010004e30                _hw_endpoint_xfer_sync
 .text._hw_endpoint_xfer_continue
                0x0000000010004ea4       0x58 CMakeFiles/HandGest.dir/home/anonxx/pico/pico-sdk/lib/tinyusb/src/portable/raspberrypi/rp2040/rp2040_usb.c.obj
                0x0000000010004ea4                _hw_endpoint_xfer_continue
 .text._hw_endpoint_xfer
                0x0000000010004efc       0x34 CMakeFiles/HandGest.dir/home/anonxx/pico/pico-sdk/lib/tinyusb/src/portable/raspberrypi/rp2040/rp2040_usb.c.obj
                0x0000000010004efc                _hw_endpoint_xfer
 .text.mark_interface_endpoint
                0x0000000010004f30       0x2a CMakeFiles/HandGest.dir/home/anonxx/pico/pico-sdk/lib/tinyusb/src/device/usbd.c.obj
 *fill*         0x0000000010004f5a        0x2 
 .text.usbd_reset
                0x0000000010004f5c       0x88 CMakeFiles/HandGest.dir/home/anonxx/pico/pico-sdk/lib/tinyusb/src/device/usbd.c.obj
 .text.invoke_class_control
                0x0000000010004fe4       0x18 CMakeFiles/HandGest.dir/home/anonxx/pico/pico-sdk/lib/tinyusb/src/device/usbd.c.obj
 .text.process_set_config
                0x0000000010004ffc      0x1cc CMakeFiles/HandGest.dir/home/anonxx/pico/pico-sdk/lib/tinyusb/src/device/usbd.c.obj
 .text.process_get_descriptor
                0x00000000100051c8       0xf4 CMakeFiles/HandGest.dir/home/anonxx/pico/pico-sdk/lib/tinyusb/src/device/usbd.c.obj
 .text.tud_mounted
                0x00000000100052bc       0x10 CMakeFiles/HandGest.dir/home/anonxx/pico/pico-sdk/lib/tinyusb/src/device/usbd.c.obj
                0x00000000100052bc                tud_mounted
 .text.tud_suspended
                0x00000000100052cc       0x10 CMakeFiles/HandGest.dir/home/anonxx/pico/pico-sdk/lib/tinyusb/src/device/usbd.c.obj
                0x00000000100052cc                tud_suspended
 .text.tud_init
                0x00000000100052dc       0xb8 CMakeFiles/HandGest.dir/home/anonxx/pico/pico-sdk/lib/tinyusb/src/device/usbd.c.obj
                0x00000000100052dc                tud_init
 .text.dcd_event_handler
                0x0000000010005394      0x1c4 CMakeFiles/HandGest.dir/home/anonxx/pico/pico-sdk/lib/tinyusb/src/device/usbd.c.obj
                0x0000000010005394                dcd_event_handler
 .text.dcd_event_bus_signal
                0x0000000010005558       0x26 CMakeFiles/HandGest.dir/home/anonxx/pico/pico-sdk/lib/tinyusb/src/device/usbd.c.obj
                0x0000000010005558                dcd_event_bus_signal
 .text.dcd_event_setup_received
                0x000000001000557e       0x34 CMakeFiles/HandGest.dir/home/anonxx/pico/pico-sdk/lib/tinyusb/src/device/usbd.c.obj
                0x000000001000557e                dcd_event_setup_received
 .text.dcd_event_xfer_complete
                0x00000000100055b2       0x44 CMakeFiles/HandGest.dir/home/anonxx/pico/pico-sdk/lib/tinyusb/src/device/usbd.c.obj
                0x00000000100055b2                dcd_event_xfer_complete
 .text.usbd_edpt_open
                0x00000000100055f6        0x8 CMakeFiles/HandGest.dir/home/anonxx/pico/pico-sdk/lib/tinyusb/src/device/usbd.c.obj
                0x00000000100055f6                usbd_edpt_open
 *fill*         0x00000000100055fe        0x2 
 .text.usbd_open_edpt_pair
                0x0000000010005600       0x8c CMakeFiles/HandGest.dir/home/anonxx/pico/pico-sdk/lib/tinyusb/src/device/usbd.c.obj
                0x0000000010005600                usbd_open_edpt_pair
 .text.usbd_edpt_claim
                0x000000001000568c       0x8c CMakeFiles/HandGest.dir/home/anonxx/pico/pico-sdk/lib/tinyusb/src/device/usbd.c.obj
                0x000000001000568c                usbd_edpt_claim
 .text.usbd_edpt_release
                0x0000000010005718       0x68 CMakeFiles/HandGest.dir/home/anonxx/pico/pico-sdk/lib/tinyusb/src/device/usbd.c.obj
                0x0000000010005718                usbd_edpt_release
 .text.usbd_edpt_xfer
                0x0000000010005780       0x80 CMakeFiles/HandGest.dir/home/anonxx/pico/pico-sdk/lib/tinyusb/src/device/usbd.c.obj
                0x0000000010005780                usbd_edpt_xfer
 .text.usbd_edpt_stall
                0x0000000010005800       0x2c CMakeFiles/HandGest.dir/home/anonxx/pico/pico-sdk/lib/tinyusb/src/device/usbd.c.obj
                0x0000000010005800                usbd_edpt_stall
 .text.usbd_edpt_clear_stall
                0x000000001000582c       0x2c CMakeFiles/HandGest.dir/home/anonxx/pico/pico-sdk/lib/tinyusb/src/device/usbd.c.obj
                0x000000001000582c                usbd_edpt_clear_stall
 .text.usbd_edpt_stalled
                0x0000000010005858       0x1c CMakeFiles/HandGest.dir/home/anonxx/pico/pico-sdk/lib/tinyusb/src/device/usbd.c.obj
                0x0000000010005858                usbd_edpt_stalled
 .text.process_control_request
                0x0000000010005874      0x37c CMakeFiles/HandGest.dir/home/anonxx/pico/pico-sdk/lib/tinyusb/src/device/usbd.c.obj
 .text.tud_task
                0x0000000010005bf0      0x204 CMakeFiles/HandGest.dir/home/anonxx/pico/pico-sdk/lib/tinyusb/src/device/usbd.c.obj
                0x0000000010005bf0                tud_task
 .text._data_stage_xact
                0x0000000010005df4       0x58 CMakeFiles/HandGest.dir/home/anonxx/pico/pico-sdk/lib/tinyusb/src/device/usbd_control.c.obj
 .text.tud_control_status
                0x0000000010005e4c       0x38 CMakeFiles/HandGest.dir/home/anonxx/pico/pico-sdk/lib/tinyusb/src/device/usbd_control.c.obj
                0x0000000010005e4c                tud_control_status
 .text.tud_control_xfer
                0x0000000010005e84       0xa8 CMakeFiles/HandGest.dir/home/anonxx/pico/pico-sdk/lib/tinyusb/src/device/usbd_control.c.obj
                0x0000000010005e84                tud_control_xfer
 .text.usbd_control_reset
                0x0000000010005f2c       0x14 CMakeFiles/HandGest.dir/home/anonxx/pico/pico-sdk/lib/tinyusb/src/device/usbd_control.c.obj
                0x0000000010005f2c                usbd_control_reset
 .text.usbd_control_set_complete_callback
                0x0000000010005f40        0xc CMakeFiles/HandGest.dir/home/anonxx/pico/pico-sdk/lib/tinyusb/src/device/usbd_control.c.obj
                0x0000000010005f40                usbd_control_set_complete_callback
 .text.usbd_control_set_request
                0x0000000010005f4c       0x1c CMakeFiles/HandGest.dir/home/anonxx/pico/pico-sdk/lib/tinyusb/src/device/usbd_control.c.obj
                0x0000000010005f4c                usbd_control_set_request
 .text.usbd_control_xfer_cb
                0x0000000010005f68       0xe8 CMakeFiles/HandGest.dir/home/anonxx/pico/pico-sdk/lib/tinyusb/src/device/usbd_control.c.obj
                0x0000000010005f68                usbd_control_xfer_cb
 .text._prep_out_transaction
                0x0000000010006050       0x46 CMakeFiles/HandGest.dir/home/anonxx/pico/pico-sdk/lib/tinyusb/src/class/cdc/cdc_device.c.obj
 *fill*         0x0000000010006096        0x2 
 .text.tud_cdc_n_connected
                0x0000000010006098       0x48 CMakeFiles/HandGest.dir/home/anonxx/pico/pico-sdk/lib/tinyusb/src/class/cdc/cdc_device.c.obj
                0x0000000010006098                tud_cdc_n_connected
 .text.tud_cdc_n_available
                0x00000000100060e0       0x20 CMakeFiles/HandGest.dir/home/anonxx/pico/pico-sdk/lib/tinyusb/src/class/cdc/cdc_device.c.obj
                0x00000000100060e0                tud_cdc_n_available
 .text.tud_cdc_n_read
                0x0000000010006100       0x30 CMakeFiles/HandGest.dir/home/anonxx/pico/pico-sdk/lib/tinyusb/src/class/cdc/cdc_device.c.obj
                0x0000000010006100                tud_cdc_n_read
 .text.tud_cdc_n_write_flush
                0x0000000010006130       0xc4 CMakeFiles/HandGest.dir/home/anonxx/pico/pico-sdk/lib/tinyusb/src/class/cdc/cdc_device.c.obj
                0x0000000010006130                tud_cdc_n_write_flush
 .text.tud_cdc_n_write
                0x00000000100061f4       0x38 CMakeFiles/HandGest.dir/home/anonxx/pico/pico-sdk/lib/tinyusb/src/class/cdc/cdc_device.c.obj
                0x00000000100061f4                tud_cdc_n_write
 .text.tud_cdc_n_write_available
                0x000000001000622c       0x20 CMakeFiles/HandGest.dir/home/anonxx/pico/pico-sdk/lib/tinyusb/src/class/cdc/cdc_device.c.obj
                0x000000001000622c                tud_cdc_n_write_available
 .text.cdcd_init
                0x000000001000624c       0xe0 CMakeFiles/HandGest.dir/home/anonxx/pico/pico-sdk/lib/tinyusb/src/class/cdc/cdc_device.c.obj
                0x000000001000624c                cdcd_init
 .text.cdcd_reset
                0x000000001000632c       0x44 CMakeFiles/HandGest.dir/home/anonxx/pico/pico-sdk/lib/tinyusb/src/class/cdc/cdc_device.c.obj
                0x000000001000632c                cdcd_reset
 .text.cdcd_open
                0x0000000010006370      0x118 CMakeFiles/HandGest.dir/home/anonxx/pico/pico-sdk/lib/tinyusb/src/class/cdc/cdc_device.c.obj
                0x0000000010006370                cdcd_open
 .text.cdcd_control_complete
                0x0000000010006488       0x60 CMakeFiles/HandGest.dir/home/anonxx/pico/pico-sdk/lib/tinyusb/src/class/cdc/cdc_device.c.obj
                0x0000000010006488                cdcd_control_complete
 .text.cdcd_control_request
                0x00000000100064e8       0x9c CMakeFiles/HandGest.dir/home/anonxx/pico/pico-sdk/lib/tinyusb/src/class/cdc/cdc_device.c.obj
                0x00000000100064e8                cdcd_control_request
 .text.cdcd_xfer_cb
                0x0000000010006584      0x130 CMakeFiles/HandGest.dir/home/anonxx/pico/pico-sdk/lib/tinyusb/src/class/cdc/cdc_device.c.obj
                0x0000000010006584                cdcd_xfer_cb
 .text.tusb_init
                0x00000000100066b4       0x38 CMakeFiles/HandGest.dir/home/anonxx/pico/pico-sdk/lib/tinyusb/src/tusb.c.obj
                0x00000000100066b4                tusb_init
 .text.tusb_inited
                0x00000000100066ec        0xc CMakeFiles/HandGest.dir/home/anonxx/pico/pico-sdk/lib/tinyusb/src/tusb.c.obj
                0x00000000100066ec                tusb_inited
 .text.advance_pointer
                0x00000000100066f8       0x1e CMakeFiles/HandGest.dir/home/anonxx/pico/pico-sdk/lib/tinyusb/src/common/tusb_fifo.c.obj
 .text.backward_pointer
                0x0000000010006716       0x1a CMakeFiles/HandGest.dir/home/anonxx/pico/pico-sdk/lib/tinyusb/src/common/tusb_fifo.c.obj
 .text.get_relative_pointer
                0x0000000010006730       0x16 CMakeFiles/HandGest.dir/home/anonxx/pico/pico-sdk/lib/tinyusb/src/common/tusb_fifo.c.obj
 .text.tu_fifo_lock
                0x0000000010006746       0x12 CMakeFiles/HandGest.dir/home/anonxx/pico/pico-sdk/lib/tinyusb/src/common/tusb_fifo.c.obj
 .text.tu_fifo_unlock
                0x0000000010006758        0xe CMakeFiles/HandGest.dir/home/anonxx/pico/pico-sdk/lib/tinyusb/src/common/tusb_fifo.c.obj
 .text._tu_fifo_peek_at
                0x0000000010006766       0x66 CMakeFiles/HandGest.dir/home/anonxx/pico/pico-sdk/lib/tinyusb/src/common/tusb_fifo.c.obj
 .text._ff_pull_n
                0x00000000100067cc       0x4a CMakeFiles/HandGest.dir/home/anonxx/pico/pico-sdk/lib/tinyusb/src/common/tusb_fifo.c.obj
 .text._tu_fifo_peek_at_n
                0x0000000010006816       0x72 CMakeFiles/HandGest.dir/home/anonxx/pico/pico-sdk/lib/tinyusb/src/common/tusb_fifo.c.obj
 .text._ff_push_n
                0x0000000010006888       0x4a CMakeFiles/HandGest.dir/home/anonxx/pico/pico-sdk/lib/tinyusb/src/common/tusb_fifo.c.obj
 .text.tu_fifo_config
                0x00000000100068d2       0x48 CMakeFiles/HandGest.dir/home/anonxx/pico/pico-sdk/lib/tinyusb/src/common/tusb_fifo.c.obj
                0x00000000100068d2                tu_fifo_config
 .text.tu_fifo_count
                0x000000001000691a       0x1c CMakeFiles/HandGest.dir/home/anonxx/pico/pico-sdk/lib/tinyusb/src/common/tusb_fifo.c.obj
                0x000000001000691a                tu_fifo_count
 .text.tu_fifo_remaining
                0x0000000010006936       0x20 CMakeFiles/HandGest.dir/home/anonxx/pico/pico-sdk/lib/tinyusb/src/common/tusb_fifo.c.obj
                0x0000000010006936                tu_fifo_remaining
 .text.tu_fifo_read
                0x0000000010006956       0x3a CMakeFiles/HandGest.dir/home/anonxx/pico/pico-sdk/lib/tinyusb/src/common/tusb_fifo.c.obj
                0x0000000010006956                tu_fifo_read
 .text.tu_fifo_read_n
                0x0000000010006990       0x3e CMakeFiles/HandGest.dir/home/anonxx/pico/pico-sdk/lib/tinyusb/src/common/tusb_fifo.c.obj
                0x0000000010006990                tu_fifo_read_n
 .text.tu_fifo_write
                0x00000000100069ce       0x5c CMakeFiles/HandGest.dir/home/anonxx/pico/pico-sdk/lib/tinyusb/src/common/tusb_fifo.c.obj
                0x00000000100069ce                tu_fifo_write
 .text.tu_fifo_write_n
                0x0000000010006a2a       0x7c CMakeFiles/HandGest.dir/home/anonxx/pico/pico-sdk/lib/tinyusb/src/common/tusb_fifo.c.obj
                0x0000000010006a2a                tu_fifo_write_n
 .text.tu_fifo_clear
                0x0000000010006aa6       0x18 CMakeFiles/HandGest.dir/home/anonxx/pico/pico-sdk/lib/tinyusb/src/common/tusb_fifo.c.obj
                0x0000000010006aa6                tu_fifo_clear
 *fill*         0x0000000010006abe        0x2 
 .text          0x0000000010006ac0       0x68 /usr/lib/gcc/arm-none-eabi/9.2.1/../../../arm-none-eabi/lib/thumb/v6-m/nofp/libg.a(lib_a-strlen-stub.o)
                0x0000000010006ac0                strlen
 *(.fini)
 .fini          0x0000000010006b28        0x4 /usr/lib/gcc/arm-none-eabi/9.2.1/thumb/v6-m/nofp/crti.o
                0x0000000010006b28                _fini
 *fill*         0x0000000010006b2c        0x4 
 .fini.__stub   0x0000000010006b30       0x60 linker stubs
 *crtbegin.o(.ctors)
 *crtbegin?.o(.ctors)
 *(EXCLUDE_FILE(*crtend.o *crtend?.o) .ctors)
 *(SORT_BY_NAME(.ctors.*))
 *(.ctors)
 *crtbegin.o(.dtors)
 *crtbegin?.o(.dtors)
 *(EXCLUDE_FILE(*crtend.o *crtend?.o) .dtors)
 *(SORT_BY_NAME(.dtors.*))
 *(.dtors)
 *(.eh_frame*)
 .eh_frame      0x0000000010006b90        0x0 /usr/lib/gcc/arm-none-eabi/9.2.1/thumb/v6-m/nofp/crtbegin.o
                0x0000000010006b90                . = ALIGN (0x4)

.glue_7         0x0000000010006b90        0x0
 .glue_7        0x0000000010006b90        0x0 linker stubs

.glue_7t        0x0000000010006b90        0x0
 .glue_7t       0x0000000010006b90        0x0 linker stubs

.vfp11_veneer   0x0000000010006b90        0x0
 .vfp11_veneer  0x0000000010006b90        0x0 linker stubs

.v4_bx          0x0000000010006b90        0x0
 .v4_bx         0x0000000010006b90        0x0 linker stubs

.iplt           0x0000000010006b90        0x0
 .iplt          0x0000000010006b90        0x0 /usr/lib/gcc/arm-none-eabi/9.2.1/thumb/v6-m/nofp/crtbegin.o

.rodata         0x0000000010006b90     0x1464
 *(EXCLUDE_FILE(*libm.a: *libc.a:*lib_a-mem*.o *libgcc.a:) .rodata*)
 .rodata.main.str1.4
                0x0000000010006b90        0xe CMakeFiles/HandGest.dir/HandGest.c.obj
 *fill*         0x0000000010006b9e        0x2 
 .rodata.spin_lock_claim_unused.str1.4
                0x0000000010006ba0       0x1b CMakeFiles/HandGest.dir/home/anonxx/pico/pico-sdk/src/rp2_common/hardware_sync/sync.c.obj
 *fill*         0x0000000010006bbb        0x1 
 .rodata.repeating_timer_callback.str1.4
                0x0000000010006bbc       0x4b CMakeFiles/HandGest.dir/home/anonxx/pico/pico-sdk/src/common/pico_time/time.c.obj
 *fill*         0x0000000010006c07        0x1 
 .rodata.alarm_pool_dump_key.str1.4
                0x0000000010006c08       0x33 CMakeFiles/HandGest.dir/home/anonxx/pico/pico-sdk/src/common/pico_time/time.c.obj
 *fill*         0x0000000010006c3b        0x1 
 .rodata.ph_add_child_node.str1.4
                0x0000000010006c3c       0x96 CMakeFiles/HandGest.dir/home/anonxx/pico/pico-sdk/src/common/pico_time/time.c.obj
 *fill*         0x0000000010006cd2        0x2 
 .rodata.add_alarm_under_lock.str1.4
                0x0000000010006cd4       0x28 CMakeFiles/HandGest.dir/home/anonxx/pico/pico-sdk/src/common/pico_time/time.c.obj
                                         0x2b (size before relaxing)
 .rodata.alarm_pool_alarm_callback.str1.4
                0x0000000010006cfc       0xe6 CMakeFiles/HandGest.dir/home/anonxx/pico/pico-sdk/src/common/pico_time/time.c.obj
 *fill*         0x0000000010006de2        0x2 
 .rodata.alarm_pool_get_default.str1.4
                0x0000000010006de4       0x21 CMakeFiles/HandGest.dir/home/anonxx/pico/pico-sdk/src/common/pico_time/time.c.obj
 *fill*         0x0000000010006e05        0x3 
 .rodata.alarm_pool_cancel_alarm.str1.4
                0x0000000010006e08       0x27 CMakeFiles/HandGest.dir/home/anonxx/pico/pico-sdk/src/common/pico_time/time.c.obj
 *fill*         0x0000000010006e2f        0x1 
 .rodata.__func__.5635
                0x0000000010006e30       0x15 CMakeFiles/HandGest.dir/home/anonxx/pico/pico-sdk/src/common/pico_time/time.c.obj
 *fill*         0x0000000010006e45        0x3 
 .rodata.__func__.5932
                0x0000000010006e48        0xc CMakeFiles/HandGest.dir/home/anonxx/pico/pico-sdk/src/common/pico_time/time.c.obj
 .rodata.__func__.5939
                0x0000000010006e54       0x12 CMakeFiles/HandGest.dir/home/anonxx/pico/pico-sdk/src/common/pico_time/time.c.obj
 *fill*         0x0000000010006e66        0x2 
 .rodata.__func__.5955
                0x0000000010006e68        0xf CMakeFiles/HandGest.dir/home/anonxx/pico/pico-sdk/src/common/pico_time/time.c.obj
 *fill*         0x0000000010006e77        0x1 
 .rodata.__func__.5977
                0x0000000010006e78        0xd CMakeFiles/HandGest.dir/home/anonxx/pico/pico-sdk/src/common/pico_time/time.c.obj
 *fill*         0x0000000010006e85        0x3 
 .rodata.__func__.6096
                0x0000000010006e88        0xa CMakeFiles/HandGest.dir/home/anonxx/pico/pico-sdk/src/common/pico_time/time.c.obj
 *fill*         0x0000000010006e92        0x2 
 .rodata.__func__.6101
                0x0000000010006e94       0x12 CMakeFiles/HandGest.dir/home/anonxx/pico/pico-sdk/src/common/pico_time/time.c.obj
 *fill*         0x0000000010006ea6        0x2 
 .rodata.__func__.6116
                0x0000000010006ea8       0x17 CMakeFiles/HandGest.dir/home/anonxx/pico/pico-sdk/src/common/pico_time/time.c.obj
 *fill*         0x0000000010006ebf        0x1 
 .rodata.__func__.6127
                0x0000000010006ec0       0x15 CMakeFiles/HandGest.dir/home/anonxx/pico/pico-sdk/src/common/pico_time/time.c.obj
 *fill*         0x0000000010006ed5        0x3 
 .rodata.__func__.6144
                0x0000000010006ed8       0x1a CMakeFiles/HandGest.dir/home/anonxx/pico/pico-sdk/src/common/pico_time/time.c.obj
 *fill*         0x0000000010006ef2        0x2 
 .rodata.__func__.6183
                0x0000000010006ef4       0x18 CMakeFiles/HandGest.dir/home/anonxx/pico/pico-sdk/src/common/pico_time/time.c.obj
 .rodata.hardware_alarm_claim.str1.4
                0x0000000010006f0c       0x22 CMakeFiles/HandGest.dir/home/anonxx/pico/pico-sdk/src/rp2_common/hardware_timer/timer.c.obj
 *fill*         0x0000000010006f2e        0x2 
 .rodata.hardware_alarm_set_target.str1.4
                0x0000000010006f30       0x65 CMakeFiles/HandGest.dir/home/anonxx/pico/pico-sdk/src/rp2_common/hardware_timer/timer.c.obj
 *fill*         0x0000000010006f95        0x3 
 .rodata.__func__.4535
                0x0000000010006f98       0x1a CMakeFiles/HandGest.dir/home/anonxx/pico/pico-sdk/src/rp2_common/hardware_timer/timer.c.obj
 *fill*         0x0000000010006fb2        0x2 
 .rodata.str1.4
                0x0000000010006fb4       0x5c CMakeFiles/HandGest.dir/home/anonxx/pico/pico-sdk/src/common/pico_sync/mutex.c.obj
                                         0xc0 (size before relaxing)
 .rodata.__func__.4193
                0x0000000010007010       0x15 CMakeFiles/HandGest.dir/home/anonxx/pico/pico-sdk/src/common/pico_sync/mutex.c.obj
 *fill*         0x0000000010007025        0x3 
 .rodata.__func__.4590
                0x0000000010007028       0x15 CMakeFiles/HandGest.dir/home/anonxx/pico/pico-sdk/src/common/pico_sync/mutex.c.obj
 *fill*         0x000000001000703d        0x3 
 .rodata.__func__.4609
                0x0000000010007040       0x18 CMakeFiles/HandGest.dir/home/anonxx/pico/pico-sdk/src/common/pico_sync/mutex.c.obj
 .rodata.__func__.4618
                0x0000000010007058        0xb CMakeFiles/HandGest.dir/home/anonxx/pico/pico-sdk/src/common/pico_sync/mutex.c.obj
 .rodata.ph_add_child_node.str1.4
                0x0000000010007063       0x96 CMakeFiles/HandGest.dir/home/anonxx/pico/pico-sdk/src/common/pico_util/pheap.c.obj
 *fill*         0x0000000010007063        0x1 
 .rodata.ph_remove_any_head.str1.4
                0x0000000010007064       0x8c CMakeFiles/HandGest.dir/home/anonxx/pico/pico-sdk/src/common/pico_util/pheap.c.obj
 .rodata.ph_remove_and_free_node.str1.4
                0x00000000100070f0       0x26 CMakeFiles/HandGest.dir/home/anonxx/pico/pico-sdk/src/common/pico_util/pheap.c.obj
 *fill*         0x0000000010007116        0x2 
 .rodata.__func__.5708
                0x0000000010007118        0xc CMakeFiles/HandGest.dir/home/anonxx/pico/pico-sdk/src/common/pico_util/pheap.c.obj
 .rodata.__func__.5715
                0x0000000010007124       0x12 CMakeFiles/HandGest.dir/home/anonxx/pico/pico-sdk/src/common/pico_util/pheap.c.obj
 *fill*         0x0000000010007136        0x2 
 .rodata.__func__.5801
                0x0000000010007138       0x13 CMakeFiles/HandGest.dir/home/anonxx/pico/pico-sdk/src/common/pico_util/pheap.c.obj
 *fill*         0x000000001000714b        0x1 
 .rodata.__func__.5819
                0x000000001000714c       0x18 CMakeFiles/HandGest.dir/home/anonxx/pico/pico-sdk/src/common/pico_util/pheap.c.obj
 .rodata.__assert_func.str1.4
                0x0000000010007164       0x3f CMakeFiles/HandGest.dir/home/anonxx/pico/pico-sdk/src/rp2_common/pico_runtime/runtime.c.obj
                                         0x43 (size before relaxing)
 *fill*         0x00000000100071a3        0x1 
 .rodata.panic.str1.4
                0x00000000100071a4       0x12 CMakeFiles/HandGest.dir/home/anonxx/pico/pico-sdk/src/rp2_common/pico_runtime/runtime.c.obj
 *fill*         0x00000000100071b6        0x2 
 .rodata.clock_configure.str1.4
                0x00000000100071b8       0x57 CMakeFiles/HandGest.dir/home/anonxx/pico/pico-sdk/src/rp2_common/hardware_clocks/clocks.c.obj
 *fill*         0x000000001000720f        0x1 
 .rodata.__func__.4655
                0x0000000010007210       0x10 CMakeFiles/HandGest.dir/home/anonxx/pico/pico-sdk/src/rp2_common/hardware_clocks/clocks.c.obj
 .rodata.pll_init.str1.4
                0x0000000010007220       0xdb CMakeFiles/HandGest.dir/home/anonxx/pico/pico-sdk/src/rp2_common/hardware_pll/pll.c.obj
 *fill*         0x00000000100072fb        0x1 
 .rodata.__func__.4385
                0x00000000100072fc        0x9 CMakeFiles/HandGest.dir/home/anonxx/pico/pico-sdk/src/rp2_common/hardware_pll/pll.c.obj
 *fill*         0x0000000010007305        0x3 
 .rodata.make_branch.str1.4
                0x0000000010007308       0x4d CMakeFiles/HandGest.dir/home/anonxx/pico/pico-sdk/src/rp2_common/hardware_irq/irq.c.obj
 *fill*         0x0000000010007355        0x3 
 .rodata.irq_set_exclusive_handler.str1.4
                0x0000000010007358       0x36 CMakeFiles/HandGest.dir/home/anonxx/pico/pico-sdk/src/rp2_common/hardware_irq/irq.c.obj
 *fill*         0x000000001000738e        0x2 
 .rodata.irq_add_shared_handler.str1.4
                0x0000000010007390       0xd9 CMakeFiles/HandGest.dir/home/anonxx/pico/pico-sdk/src/rp2_common/hardware_irq/irq.c.obj
 *fill*         0x0000000010007469        0x3 
 .rodata.irq_remove_handler.str1.4
                0x000000001000746c       0x2a CMakeFiles/HandGest.dir/home/anonxx/pico/pico-sdk/src/rp2_common/hardware_irq/irq.c.obj
 *fill*         0x0000000010007496        0x2 
 .rodata.irq_add_tail_to_free_list.str1.4
                0x0000000010007498       0x32 CMakeFiles/HandGest.dir/home/anonxx/pico/pico-sdk/src/rp2_common/hardware_irq/irq.c.obj
                                         0x3a (size before relaxing)
 *fill*         0x00000000100074ca        0x2 
 .rodata.__func__.4494
                0x00000000100074cc       0x1a CMakeFiles/HandGest.dir/home/anonxx/pico/pico-sdk/src/rp2_common/hardware_irq/irq.c.obj
 *fill*         0x00000000100074e6        0x2 
 .rodata.__func__.4508
                0x00000000100074e8        0xc CMakeFiles/HandGest.dir/home/anonxx/pico/pico-sdk/src/rp2_common/hardware_irq/irq.c.obj
 .rodata.__func__.4516
                0x00000000100074f4       0x17 CMakeFiles/HandGest.dir/home/anonxx/pico/pico-sdk/src/rp2_common/hardware_irq/irq.c.obj
 *fill*         0x000000001000750b        0x1 
 .rodata.__func__.4520
                0x000000001000750c        0xf CMakeFiles/HandGest.dir/home/anonxx/pico/pico-sdk/src/rp2_common/hardware_irq/irq.c.obj
 *fill*         0x000000001000751b        0x1 
 .rodata.__func__.4559
                0x000000001000751c       0x13 CMakeFiles/HandGest.dir/home/anonxx/pico/pico-sdk/src/rp2_common/hardware_irq/irq.c.obj
 *fill*         0x000000001000752f        0x1 
 .rodata.__func__.4578
                0x0000000010007530       0x1a CMakeFiles/HandGest.dir/home/anonxx/pico/pico-sdk/src/rp2_common/hardware_irq/irq.c.obj
 *fill*         0x000000001000754a        0x2 
 .rodata._ftoa.str1.4
                0x000000001000754c       0x15 CMakeFiles/HandGest.dir/home/anonxx/pico/pico-sdk/src/rp2_common/pico_printf/printf.c.obj
 *fill*         0x0000000010007561        0x3 
 .rodata._vsnprintf
                0x0000000010007564      0x1e0 CMakeFiles/HandGest.dir/home/anonxx/pico/pico-sdk/src/rp2_common/pico_printf/printf.c.obj
 *fill*         0x0000000010007744        0x4 
 .rodata.pow10.5422
                0x0000000010007748       0x50 CMakeFiles/HandGest.dir/home/anonxx/pico/pico-sdk/src/rp2_common/pico_printf/printf.c.obj
 .rodata.__aeabi_double_init.str1.4
                0x0000000010007798       0xa8 CMakeFiles/HandGest.dir/home/anonxx/pico/pico-sdk/src/rp2_common/pico_double/double_init_rom.c.obj
 .rodata.__func__.4668
                0x0000000010007840       0x14 CMakeFiles/HandGest.dir/home/anonxx/pico/pico-sdk/src/rp2_common/pico_double/double_init_rom.c.obj
 .rodata.__aeabi_float_init.str1.4
                0x0000000010007854       0x7a CMakeFiles/HandGest.dir/home/anonxx/pico/pico-sdk/src/rp2_common/pico_float/float_init_rom.c.obj
                                         0x7e (size before relaxing)
 *fill*         0x00000000100078ce        0x2 
 .rodata.__func__.4670
                0x00000000100078d0       0x13 CMakeFiles/HandGest.dir/home/anonxx/pico/pico-sdk/src/rp2_common/pico_float/float_init_rom.c.obj
 *fill*         0x00000000100078e3        0x1 
 .rodata.str1.4
                0x00000000100078e4       0x44 CMakeFiles/HandGest.dir/home/anonxx/pico/pico-sdk/src/rp2_common/pico_standard_link/binary_info.c.obj
 .rodata.__bi_44
                0x0000000010007928        0xc CMakeFiles/HandGest.dir/home/anonxx/pico/pico-sdk/src/rp2_common/pico_standard_link/binary_info.c.obj
 .rodata.__bi_56
                0x0000000010007934        0xc CMakeFiles/HandGest.dir/home/anonxx/pico/pico-sdk/src/rp2_common/pico_standard_link/binary_info.c.obj
 .rodata.__bi_75
                0x0000000010007940        0xc CMakeFiles/HandGest.dir/home/anonxx/pico/pico-sdk/src/rp2_common/pico_standard_link/binary_info.c.obj
 .rodata.__bi_81
                0x000000001000794c        0xc CMakeFiles/HandGest.dir/home/anonxx/pico/pico-sdk/src/rp2_common/pico_standard_link/binary_info.c.obj
 .rodata.crlf_str.5996
                0x0000000010007958        0x2 CMakeFiles/HandGest.dir/home/anonxx/pico/pico-sdk/src/rp2_common/pico_stdio/stdio.c.obj
 *fill*         0x000000001000795a        0x2 
 .rodata.str1.4
                0x000000001000795c       0x2c CMakeFiles/HandGest.dir/home/anonxx/pico/pico-sdk/src/rp2_common/pico_stdio_uart/stdio_uart.c.obj
 .rodata.__bi_28.4706
                0x0000000010007988        0xc CMakeFiles/HandGest.dir/home/anonxx/pico/pico-sdk/src/rp2_common/pico_stdio_uart/stdio_uart.c.obj
 .rodata.__bi_29.4710
                0x0000000010007994        0x8 CMakeFiles/HandGest.dir/home/anonxx/pico/pico-sdk/src/rp2_common/pico_stdio_uart/stdio_uart.c.obj
 .rodata._resetd_driver
                0x000000001000799c       0x1c CMakeFiles/HandGest.dir/home/anonxx/pico/pico-sdk/src/rp2_common/pico_stdio_usb/reset_interface.c.obj
 .rodata.stdio_usb_init.str1.4
                0x00000000100079b8       0x61 CMakeFiles/HandGest.dir/home/anonxx/pico/pico-sdk/src/rp2_common/pico_stdio_usb/stdio_usb.c.obj
 .rodata.str1.4
                0x00000000100079b8       0x13 CMakeFiles/HandGest.dir/home/anonxx/pico/pico-sdk/src/rp2_common/pico_stdio_usb/stdio_usb.c.obj
 *fill*         0x00000000100079cb        0x1 
 .rodata.__bi_93.7049
                0x00000000100079cc        0xc CMakeFiles/HandGest.dir/home/anonxx/pico/pico-sdk/src/rp2_common/pico_stdio_usb/stdio_usb.c.obj
 .rodata.__func__.5424
                0x00000000100079d8       0x15 CMakeFiles/HandGest.dir/home/anonxx/pico/pico-sdk/src/rp2_common/pico_stdio_usb/stdio_usb.c.obj
 *fill*         0x00000000100079ed        0x3 
 .rodata.str1.4
                0x00000000100079f0       0x3a CMakeFiles/HandGest.dir/home/anonxx/pico/pico-sdk/src/rp2_common/pico_stdio_usb/stdio_usb_descriptors.c.obj
 *fill*         0x0000000010007a2a        0x2 
 .rodata.usbd_desc_cfg
                0x0000000010007a2c       0x54 CMakeFiles/HandGest.dir/home/anonxx/pico/pico-sdk/src/rp2_common/pico_stdio_usb/stdio_usb_descriptors.c.obj
 .rodata.usbd_desc_device
                0x0000000010007a80       0x12 CMakeFiles/HandGest.dir/home/anonxx/pico/pico-sdk/src/rp2_common/pico_stdio_usb/stdio_usb_descriptors.c.obj
 *fill*         0x0000000010007a92        0x2 
 .rodata.usbd_desc_str
                0x0000000010007a94       0x18 CMakeFiles/HandGest.dir/home/anonxx/pico/pico-sdk/src/rp2_common/pico_stdio_usb/stdio_usb_descriptors.c.obj
 .rodata._hw_endpoint_alloc.str1.4
                0x0000000010007aac       0xb5 CMakeFiles/HandGest.dir/home/anonxx/pico/pico-sdk/lib/tinyusb/src/portable/raspberrypi/rp2040/dcd_rp2040.c.obj
 *fill*         0x0000000010007b61        0x3 
 .rodata._hw_endpoint_init.str1.4
                0x0000000010007b64       0x28 CMakeFiles/HandGest.dir/home/anonxx/pico/pico-sdk/lib/tinyusb/src/portable/raspberrypi/rp2040/dcd_rp2040.c.obj
 .rodata.hw_handle_buff_status.str1.4
                0x0000000010007b8c        0xb CMakeFiles/HandGest.dir/home/anonxx/pico/pico-sdk/lib/tinyusb/src/portable/raspberrypi/rp2040/dcd_rp2040.c.obj
 *fill*         0x0000000010007b97        0x1 
 .rodata.dcd_rp2040_irq.str1.4
                0x0000000010007b98       0x14 CMakeFiles/HandGest.dir/home/anonxx/pico/pico-sdk/lib/tinyusb/src/portable/raspberrypi/rp2040/dcd_rp2040.c.obj
 .rodata._hw_endpoint_stall.str1.4
                0x0000000010007bac        0xd CMakeFiles/HandGest.dir/home/anonxx/pico/pico-sdk/lib/tinyusb/src/portable/raspberrypi/rp2040/dcd_rp2040.c.obj
 *fill*         0x0000000010007bb9        0x3 
 .rodata.dcd_int_enable.str1.4
                0x0000000010007bbc        0xc CMakeFiles/HandGest.dir/home/anonxx/pico/pico-sdk/lib/tinyusb/src/portable/raspberrypi/rp2040/dcd_rp2040.c.obj
 .rodata.__func__.6772
                0x0000000010007bc8       0x13 CMakeFiles/HandGest.dir/home/anonxx/pico/pico-sdk/lib/tinyusb/src/portable/raspberrypi/rp2040/dcd_rp2040.c.obj
 *fill*         0x0000000010007bdb        0x1 
 .rodata.__func__.6803
                0x0000000010007bdc       0x16 CMakeFiles/HandGest.dir/home/anonxx/pico/pico-sdk/lib/tinyusb/src/portable/raspberrypi/rp2040/dcd_rp2040.c.obj
 *fill*         0x0000000010007bf2        0x2 
 .rodata.__func__.6824
                0x0000000010007bf4       0x13 CMakeFiles/HandGest.dir/home/anonxx/pico/pico-sdk/lib/tinyusb/src/portable/raspberrypi/rp2040/dcd_rp2040.c.obj
 *fill*         0x0000000010007c07        0x1 
 .rodata.__func__.6845
                0x0000000010007c08        0x9 CMakeFiles/HandGest.dir/home/anonxx/pico/pico-sdk/lib/tinyusb/src/portable/raspberrypi/rp2040/dcd_rp2040.c.obj
 *fill*         0x0000000010007c11        0x3 
 .rodata.__func__.6849
                0x0000000010007c14        0xf CMakeFiles/HandGest.dir/home/anonxx/pico/pico-sdk/lib/tinyusb/src/portable/raspberrypi/rp2040/dcd_rp2040.c.obj
 *fill*         0x0000000010007c23        0x1 
 .rodata.__func__.6858
                0x0000000010007c24       0x10 CMakeFiles/HandGest.dir/home/anonxx/pico/pico-sdk/lib/tinyusb/src/portable/raspberrypi/rp2040/dcd_rp2040.c.obj
 .rodata.__func__.6870
                0x0000000010007c34        0xc CMakeFiles/HandGest.dir/home/anonxx/pico/pico-sdk/lib/tinyusb/src/portable/raspberrypi/rp2040/dcd_rp2040.c.obj
 .rodata.__func__.6875
                0x0000000010007c40       0x1a CMakeFiles/HandGest.dir/home/anonxx/pico/pico-sdk/lib/tinyusb/src/portable/raspberrypi/rp2040/dcd_rp2040.c.obj
 *fill*         0x0000000010007c5a        0x2 
 .rodata.__func__.6880
                0x0000000010007c5c        0xe CMakeFiles/HandGest.dir/home/anonxx/pico/pico-sdk/lib/tinyusb/src/portable/raspberrypi/rp2040/dcd_rp2040.c.obj
 *fill*         0x0000000010007c6a        0x2 
 .rodata.__func__.6887
                0x0000000010007c6c        0xe CMakeFiles/HandGest.dir/home/anonxx/pico/pico-sdk/lib/tinyusb/src/portable/raspberrypi/rp2040/dcd_rp2040.c.obj
 *fill*         0x0000000010007c7a        0x2 
 .rodata.__func__.6892
                0x0000000010007c7c        0xf CMakeFiles/HandGest.dir/home/anonxx/pico/pico-sdk/lib/tinyusb/src/portable/raspberrypi/rp2040/dcd_rp2040.c.obj
 *fill*         0x0000000010007c8b        0x1 
 .rodata.__func__.6897
                0x0000000010007c8c       0x15 CMakeFiles/HandGest.dir/home/anonxx/pico/pico-sdk/lib/tinyusb/src/portable/raspberrypi/rp2040/dcd_rp2040.c.obj
 *fill*         0x0000000010007ca1        0x3 
 .rodata._hw_endpoint_buffer_control_update32.str1.4
                0x0000000010007ca4       0x1f CMakeFiles/HandGest.dir/home/anonxx/pico/pico-sdk/lib/tinyusb/src/portable/raspberrypi/rp2040/rp2040_usb.c.obj
 *fill*         0x0000000010007cc3        0x1 
 .rodata._hw_endpoint_xfer_sync.str1.4
                0x0000000010007cc4       0x91 CMakeFiles/HandGest.dir/home/anonxx/pico/pico-sdk/lib/tinyusb/src/portable/raspberrypi/rp2040/rp2040_usb.c.obj
 *fill*         0x0000000010007d55        0x3 
 .rodata._hw_endpoint_xfer_continue.str1.4
                0x0000000010007d58       0x50 CMakeFiles/HandGest.dir/home/anonxx/pico/pico-sdk/lib/tinyusb/src/portable/raspberrypi/rp2040/rp2040_usb.c.obj
 .rodata._hw_endpoint_xfer.str1.4
                0x0000000010007da8        0xf CMakeFiles/HandGest.dir/home/anonxx/pico/pico-sdk/lib/tinyusb/src/portable/raspberrypi/rp2040/rp2040_usb.c.obj
 .rodata.str1.4
                0x0000000010007db7        0xf CMakeFiles/HandGest.dir/home/anonxx/pico/pico-sdk/lib/tinyusb/src/portable/raspberrypi/rp2040/rp2040_usb.c.obj
                                          0x7 (size before relaxing)
 *fill*         0x0000000010007db7        0x1 
 .rodata.__func__.6646
                0x0000000010007db8       0x17 CMakeFiles/HandGest.dir/home/anonxx/pico/pico-sdk/lib/tinyusb/src/portable/raspberrypi/rp2040/rp2040_usb.c.obj
 *fill*         0x0000000010007dcf        0x1 
 .rodata.__func__.6657
                0x0000000010007dd0       0x12 CMakeFiles/HandGest.dir/home/anonxx/pico/pico-sdk/lib/tinyusb/src/portable/raspberrypi/rp2040/rp2040_usb.c.obj
 *fill*         0x0000000010007de2        0x2 
 .rodata.process_set_config.str1.4
                0x0000000010007de4       0x17 CMakeFiles/HandGest.dir/home/anonxx/pico/pico-sdk/lib/tinyusb/src/device/usbd.c.obj
 *fill*         0x0000000010007dfb        0x1 
 .rodata.process_get_descriptor
                0x0000000010007dfc       0x40 CMakeFiles/HandGest.dir/home/anonxx/pico/pico-sdk/lib/tinyusb/src/device/usbd.c.obj
 .rodata.dcd_event_handler.str1.4
                0x0000000010007e3c       0x4c CMakeFiles/HandGest.dir/home/anonxx/pico/pico-sdk/lib/tinyusb/src/device/usbd.c.obj
 .rodata.process_control_request
                0x0000000010007e88       0x28 CMakeFiles/HandGest.dir/home/anonxx/pico/pico-sdk/lib/tinyusb/src/device/usbd.c.obj
 .rodata.tud_task
                0x0000000010007eb0       0x24 CMakeFiles/HandGest.dir/home/anonxx/pico/pico-sdk/lib/tinyusb/src/device/usbd.c.obj
 .rodata.__func__.6406
                0x0000000010007ed4       0x13 CMakeFiles/HandGest.dir/home/anonxx/pico/pico-sdk/lib/tinyusb/src/device/usbd.c.obj
 *fill*         0x0000000010007ee7        0x1 
 .rodata.__func__.6413
                0x0000000010007ee8       0x10 CMakeFiles/HandGest.dir/home/anonxx/pico/pico-sdk/lib/tinyusb/src/device/usbd.c.obj
 .rodata.__func__.7184
                0x0000000010007ef8        0x9 CMakeFiles/HandGest.dir/home/anonxx/pico/pico-sdk/lib/tinyusb/src/device/usbd.c.obj
 *fill*         0x0000000010007f01        0x3 
 .rodata.__func__.7205
                0x0000000010007f04       0x18 CMakeFiles/HandGest.dir/home/anonxx/pico/pico-sdk/lib/tinyusb/src/device/usbd.c.obj
 .rodata.__func__.7244
                0x0000000010007f1c       0x13 CMakeFiles/HandGest.dir/home/anonxx/pico/pico-sdk/lib/tinyusb/src/device/usbd.c.obj
 *fill*         0x0000000010007f2f        0x1 
 .rodata.__func__.7287
                0x0000000010007f30       0x17 CMakeFiles/HandGest.dir/home/anonxx/pico/pico-sdk/lib/tinyusb/src/device/usbd.c.obj
 *fill*         0x0000000010007f47        0x1 
 .rodata.__func__.7341
                0x0000000010007f48       0x14 CMakeFiles/HandGest.dir/home/anonxx/pico/pico-sdk/lib/tinyusb/src/device/usbd.c.obj
 .rodata.__func__.7377
                0x0000000010007f5c        0xf CMakeFiles/HandGest.dir/home/anonxx/pico/pico-sdk/lib/tinyusb/src/device/usbd.c.obj
 *fill*         0x0000000010007f6b        0x1 
 .rodata._usbd_driver
                0x0000000010007f6c       0x1c CMakeFiles/HandGest.dir/home/anonxx/pico/pico-sdk/lib/tinyusb/src/device/usbd.c.obj
 .rodata.tud_control_xfer.str1.4
                0x0000000010007f88       0x17 CMakeFiles/HandGest.dir/home/anonxx/pico/pico-sdk/lib/tinyusb/src/device/usbd_control.c.obj
 .rodata.__func__.7104
                0x0000000010007f88       0x11 CMakeFiles/HandGest.dir/home/anonxx/pico/pico-sdk/lib/tinyusb/src/device/usbd_control.c.obj
 *fill*         0x0000000010007f99        0x3 
 .rodata.__func__.7122
                0x0000000010007f9c       0x15 CMakeFiles/HandGest.dir/home/anonxx/pico/pico-sdk/lib/tinyusb/src/device/usbd_control.c.obj
 .rodata.tud_cdc_n_write_flush.str1.4
                0x0000000010007fb1       0x17 CMakeFiles/HandGest.dir/home/anonxx/pico/pico-sdk/lib/tinyusb/src/class/cdc/cdc_device.c.obj
 *fill*         0x0000000010007fb1        0x3 
 .rodata.__func__.7046
                0x0000000010007fb4       0x16 CMakeFiles/HandGest.dir/home/anonxx/pico/pico-sdk/lib/tinyusb/src/class/cdc/cdc_device.c.obj
 *fill*         0x0000000010007fca        0x2 
 .rodata.__func__.7075
                0x0000000010007fcc        0xa CMakeFiles/HandGest.dir/home/anonxx/pico/pico-sdk/lib/tinyusb/src/class/cdc/cdc_device.c.obj
 *fill*         0x0000000010007fd6        0x2 
 .rodata.__func__.7115
                0x0000000010007fd8        0xd CMakeFiles/HandGest.dir/home/anonxx/pico/pico-sdk/lib/tinyusb/src/class/cdc/cdc_device.c.obj
 .rodata.tusb_init.str1.4
                0x0000000010007fe5       0x17 CMakeFiles/HandGest.dir/home/anonxx/pico/pico-sdk/lib/tinyusb/src/tusb.c.obj
 *fill*         0x0000000010007fe5        0x3 
 .rodata.__func__.6983
                0x0000000010007fe8        0xa CMakeFiles/HandGest.dir/home/anonxx/pico/pico-sdk/lib/tinyusb/src/tusb.c.obj
                0x0000000010007ff4                . = ALIGN (0x4)
 *fill*         0x0000000010007ff2        0x2 
 *(SORT_BY_ALIGNMENT(SORT_BY_NAME(.flashdata*)))
                0x0000000010007ff4                . = ALIGN (0x4)

.rel.dyn        0x0000000010007ff4        0x0
 .rel.iplt      0x0000000010007ff4        0x0 /usr/lib/gcc/arm-none-eabi/9.2.1/thumb/v6-m/nofp/crtbegin.o

.ARM.extab
 *(.ARM.extab* .gnu.linkonce.armextab.*)
                0x0000000010007ff4                __exidx_start = .

.ARM.exidx
 *(.ARM.exidx* .gnu.linkonce.armexidx.*)
                0x0000000010007ff4                __exidx_end = .
                0x0000000010007ff4                . = ALIGN (0x4)
                0x0000000010007ff4                __binary_info_start = .

.binary_info    0x0000000010007ff4       0x2c
 *(.binary_info.keep.*)
 .binary_info.keep.__bi_ptr22
                0x0000000010007ff4        0x4 CMakeFiles/HandGest.dir/home/anonxx/pico/pico-sdk/src/rp2_common/pico_standard_link/binary_info.c.obj
 .binary_info.keep.__bi_ptr30
                0x0000000010007ff8        0x4 CMakeFiles/HandGest.dir/home/anonxx/pico/pico-sdk/src/rp2_common/pico_standard_link/binary_info.c.obj
 .binary_info.keep.__bi_ptr38
                0x0000000010007ffc        0x4 CMakeFiles/HandGest.dir/home/anonxx/pico/pico-sdk/src/rp2_common/pico_standard_link/binary_info.c.obj
 .binary_info.keep.__bi_ptr44
                0x0000000010008000        0x4 CMakeFiles/HandGest.dir/home/anonxx/pico/pico-sdk/src/rp2_common/pico_standard_link/binary_info.c.obj
 .binary_info.keep.__bi_ptr50
                0x0000000010008004        0x4 CMakeFiles/HandGest.dir/home/anonxx/pico/pico-sdk/src/rp2_common/pico_standard_link/binary_info.c.obj
 .binary_info.keep.__bi_ptr56
                0x0000000010008008        0x4 CMakeFiles/HandGest.dir/home/anonxx/pico/pico-sdk/src/rp2_common/pico_standard_link/binary_info.c.obj
 .binary_info.keep.__bi_ptr75
                0x000000001000800c        0x4 CMakeFiles/HandGest.dir/home/anonxx/pico/pico-sdk/src/rp2_common/pico_standard_link/binary_info.c.obj
 .binary_info.keep.__bi_ptr81
                0x0000000010008010        0x4 CMakeFiles/HandGest.dir/home/anonxx/pico/pico-sdk/src/rp2_common/pico_standard_link/binary_info.c.obj
 *(.binary_info.*)
 .binary_info.__bi_ptr28
                0x0000000010008014        0x4 CMakeFiles/HandGest.dir/home/anonxx/pico/pico-sdk/src/rp2_common/pico_stdio_uart/stdio_uart.c.obj
 .binary_info.__bi_ptr29
                0x0000000010008018        0x4 CMakeFiles/HandGest.dir/home/anonxx/pico/pico-sdk/src/rp2_common/pico_stdio_uart/stdio_uart.c.obj
 .binary_info.__bi_ptr93
                0x000000001000801c        0x4 CMakeFiles/HandGest.dir/home/anonxx/pico/pico-sdk/src/rp2_common/pico_stdio_usb/stdio_usb.c.obj
                0x0000000010008020                __binary_info_end = .
                0x0000000010008020                . = ALIGN (0x4)
                0x0000000010008020                __etext = .

.ram_vector_table
                0x0000000020000000       0xc0
 *(.ram_vector_table)
 .ram_vector_table
                0x0000000020000000       0xc0 CMakeFiles/HandGest.dir/home/anonxx/pico/pico-sdk/src/rp2_common/pico_runtime/runtime.c.obj
                0x0000000020000000                ram_vector_table

.data           0x00000000200000c0      0x33c load address 0x0000000010008020
                0x00000000200000c0                __data_start__ = .
 *(vtable)
 *(.time_critical*)
 .time_critical.mutex_enter_blocking
                0x00000000200000c0       0x64 CMakeFiles/HandGest.dir/home/anonxx/pico/pico-sdk/src/common/pico_sync/mutex.c.obj
                0x00000000200000c0                mutex_enter_blocking
 .time_critical.mutex_try_enter
                0x0000000020000124       0x48 CMakeFiles/HandGest.dir/home/anonxx/pico/pico-sdk/src/common/pico_sync/mutex.c.obj
                0x0000000020000124                mutex_try_enter
 .time_critical.mutex_enter_block_until
                0x000000002000016c       0x7c CMakeFiles/HandGest.dir/home/anonxx/pico/pico-sdk/src/common/pico_sync/mutex.c.obj
                0x000000002000016c                mutex_enter_block_until
 .time_critical.mutex_enter_timeout_ms
                0x00000000200001e8       0x78 CMakeFiles/HandGest.dir/home/anonxx/pico/pico-sdk/src/common/pico_sync/mutex.c.obj
                0x00000000200001e8                mutex_enter_timeout_ms
 .time_critical.mutex_exit
                0x0000000020000260       0x4c CMakeFiles/HandGest.dir/home/anonxx/pico/pico-sdk/src/common/pico_sync/mutex.c.obj
                0x0000000020000260                mutex_exit
 *(.text*)
 .text          0x00000000200002ac        0x4 /usr/lib/gcc/arm-none-eabi/9.2.1/thumb/v6-m/nofp/libgcc.a(_dvmd_tls.o)
                0x00000000200002ac                __aeabi_ldiv0
                0x00000000200002ac                __aeabi_idiv0
 .text.__stub   0x00000000200002b0       0x40 linker stubs
                0x00000000200002f0                . = ALIGN (0x4)
 *(.rodata*)
                0x00000000200002f0                . = ALIGN (0x4)
 *(.data*)
 .data.striped_spin_lock_num
                0x00000000200002f0        0x1 CMakeFiles/HandGest.dir/home/anonxx/pico/pico-sdk/src/rp2_common/hardware_sync/sync.c.obj
 *fill*         0x00000000200002f1        0x3 
 .data.default_alarm_pool
                0x00000000200002f4       0x18 CMakeFiles/HandGest.dir/home/anonxx/pico/pico-sdk/src/common/pico_time/time.c.obj
 .data.default_alarm_pool_heap
                0x000000002000030c       0x10 CMakeFiles/HandGest.dir/home/anonxx/pico/pico-sdk/src/common/pico_time/time.c.obj
 .data          0x000000002000031c       0x48 CMakeFiles/HandGest.dir/home/anonxx/pico/pico-sdk/src/rp2_common/hardware_irq/irq_handler_chain.S.obj
                0x000000002000031c                irq_handler_chain_slots
                0x000000002000034c                irq_handler_chain_first_slot
                0x0000000020000356                irq_handler_chain_remove_tail
 *fill*         0x0000000020000364        0xc 
 .data.aeabi_bits_funcs
                0x0000000020000370       0x10 CMakeFiles/HandGest.dir/home/anonxx/pico/pico-sdk/src/rp2_common/pico_bit_ops/bit_ops_aeabi.S.obj
                0x0000000020000370                aeabi_bits_funcs
                0x0000000020000380                aeabi_bits_funcs_end
 .data.aeabi_mem_funcs
                0x0000000020000380       0x10 CMakeFiles/HandGest.dir/home/anonxx/pico/pico-sdk/src/rp2_common/pico_mem_ops/mem_ops_aeabi.S.obj
                0x0000000020000380                aeabi_mem_funcs
                0x0000000020000390                aeabi_mem_funcs_end
 .data.stdio_uart
                0x0000000020000390       0x14 CMakeFiles/HandGest.dir/home/anonxx/pico/pico-sdk/src/rp2_common/pico_stdio_uart/stdio_uart.c.obj
                0x0000000020000390                stdio_uart
 .data.stdio_usb
                0x00000000200003a4       0x14 CMakeFiles/HandGest.dir/home/anonxx/pico/pico-sdk/src/rp2_common/pico_stdio_usb/stdio_usb.c.obj
                0x00000000200003a4                stdio_usb
 .data.ep_dir_string
                0x00000000200003b8        0x8 CMakeFiles/HandGest.dir/home/anonxx/pico/pico-sdk/lib/tinyusb/src/portable/raspberrypi/rp2040/rp2040_usb.c.obj
                0x00000000200003b8                ep_dir_string
 .data._usbd_qdef
                0x00000000200003c0       0x20 CMakeFiles/HandGest.dir/home/anonxx/pico/pico-sdk/lib/tinyusb/src/device/usbd.c.obj
                0x00000000200003c0                _usbd_qdef
                0x00000000200003e0                . = ALIGN (0x4)
 *(.after_data.*)
                0x00000000200003e0                . = ALIGN (0x4)
                0x00000000200003e0                PROVIDE (__mutex_array_start = .)
 *(SORT_BY_NAME(.mutex_array.*))
 *(.mutex_array)
 .mutex_array   0x00000000200003e0        0x8 CMakeFiles/HandGest.dir/home/anonxx/pico/pico-sdk/src/rp2_common/pico_stdio/stdio.c.obj
                0x00000000200003e8                PROVIDE (__mutex_array_end = .)
                0x00000000200003e8                . = ALIGN (0x4)
                0x00000000200003e8                PROVIDE (__preinit_array_start = .)
 *(SORT_BY_NAME(.preinit_array.*))
 .preinit_array.00001
                0x00000000200003e8        0x4 CMakeFiles/HandGest.dir/home/anonxx/pico/pico-sdk/src/rp2_common/pico_mem_ops/mem_ops_aeabi.S.obj
 .preinit_array.00010
                0x00000000200003ec        0x4 CMakeFiles/HandGest.dir/home/anonxx/pico/pico-sdk/src/rp2_common/pico_bit_ops/bit_ops_aeabi.S.obj
 .preinit_array.00020
                0x00000000200003f0        0x4 CMakeFiles/HandGest.dir/home/anonxx/pico/pico-sdk/src/rp2_common/pico_double/double_aeabi.S.obj
 .preinit_array.00020
                0x00000000200003f4        0x4 CMakeFiles/HandGest.dir/home/anonxx/pico/pico-sdk/src/rp2_common/pico_float/float_aeabi.S.obj
 *(.preinit_array)
                0x00000000200003f8                PROVIDE (__preinit_array_end = .)
                0x00000000200003f8                . = ALIGN (0x4)
                0x00000000200003f8                PROVIDE (__init_array_start = .)
 *(SORT_BY_NAME(.init_array.*))
 *(.init_array)
 .init_array    0x00000000200003f8        0x4 /usr/lib/gcc/arm-none-eabi/9.2.1/thumb/v6-m/nofp/crtbegin.o
                0x00000000200003fc                PROVIDE (__init_array_end = .)
                0x00000000200003fc                . = ALIGN (0x4)
                0x00000000200003fc                PROVIDE (__fini_array_start = .)
 *(SORT_BY_NAME(.fini_array.*))
 *(.fini_array)
                0x00000000200003fc                PROVIDE (__fini_array_end = .)
 *(.jcr)
                0x00000000200003fc                . = ALIGN (0x4)
                0x00000000200003fc                __data_end__ = .

.tm_clone_table
                0x00000000200003fc        0x0 load address 0x000000001000835c
 .tm_clone_table
                0x00000000200003fc        0x0 /usr/lib/gcc/arm-none-eabi/9.2.1/thumb/v6-m/nofp/crtbegin.o
 .tm_clone_table
                0x00000000200003fc        0x0 /usr/lib/gcc/arm-none-eabi/9.2.1/thumb/v6-m/nofp/crtend.o

.igot.plt       0x00000000200003fc        0x0 load address 0x000000001000835c
 .igot.plt      0x00000000200003fc        0x0 /usr/lib/gcc/arm-none-eabi/9.2.1/thumb/v6-m/nofp/crtbegin.o

.uninitialized_data
                0x00000000200003fc        0x0 load address 0x000000001000835c
                0x00000000200003fc                . = ALIGN (0x4)
 *(.uninitialized_data*)

.scratch_x      0x0000000020040000        0x0 load address 0x000000001000835c
                0x0000000020040000                __scratch_x_start__ = .
 *(.scratch_x.*)
                0x0000000020040000                . = ALIGN (0x4)
                0x0000000020040000                __scratch_x_end__ = .
                0x000000001000835c                __scratch_x_source__ = LOADADDR (.scratch_x)

.scratch_y      0x0000000020041000        0x0 load address 0x000000001000835c
                0x0000000020041000                __scratch_y_start__ = .
 *(.scratch_y.*)
                0x0000000020041000                . = ALIGN (0x4)
                0x0000000020041000                __scratch_y_end__ = .
                0x000000001000835c                __scratch_y_source__ = LOADADDR (.scratch_y)

.bss            0x0000000020000400      0xec4
                0x0000000020000400                . = ALIGN (0x4)
                0x0000000020000400                __bss_start__ = .
 *(SORT_BY_ALIGNMENT(SORT_BY_NAME(.bss*)))
 .bss.default_alarm_pool_entries
                0x0000000020000400      0x100 CMakeFiles/HandGest.dir/home/anonxx/pico/pico-sdk/src/common/pico_time/time.c.obj
 .bss.last_avail_time.7028
                0x0000000020000500        0x8 CMakeFiles/HandGest.dir/home/anonxx/pico/pico-sdk/src/rp2_common/pico_stdio_usb/stdio_usb.c.obj
 .bss           0x0000000020000508       0x1c /usr/lib/gcc/arm-none-eabi/9.2.1/thumb/v6-m/nofp/crtbegin.o
 .bss._app_driver
                0x0000000020000524        0x4 CMakeFiles/HandGest.dir/home/anonxx/pico/pico-sdk/lib/tinyusb/src/device/usbd.c.obj
 .bss._cdcd_itf
                0x0000000020000528      0x2d0 CMakeFiles/HandGest.dir/home/anonxx/pico/pico-sdk/lib/tinyusb/src/class/cdc/cdc_device.c.obj
 .bss._ctrl_xfer
                0x00000000200007f8       0x14 CMakeFiles/HandGest.dir/home/anonxx/pico/pico-sdk/lib/tinyusb/src/device/usbd_control.c.obj
 .bss._ubsd_mutexdef
                0x000000002000080c        0x8 CMakeFiles/HandGest.dir/home/anonxx/pico/pico-sdk/lib/tinyusb/src/device/usbd.c.obj
 .bss._usbd_ctrl_buf
                0x0000000020000814       0x40 CMakeFiles/HandGest.dir/home/anonxx/pico/pico-sdk/lib/tinyusb/src/device/usbd_control.c.obj
 .bss._usbd_dev
                0x0000000020000854       0x37 CMakeFiles/HandGest.dir/home/anonxx/pico/pico-sdk/lib/tinyusb/src/device/usbd.c.obj
 *fill*         0x000000002000088b        0x1 
 .bss._usbd_mutex
                0x000000002000088c        0x4 CMakeFiles/HandGest.dir/home/anonxx/pico/pico-sdk/lib/tinyusb/src/device/usbd.c.obj
 .bss._usbd_q   0x0000000020000890        0x4 CMakeFiles/HandGest.dir/home/anonxx/pico/pico-sdk/lib/tinyusb/src/device/usbd.c.obj
 .bss.alarm_callbacks
                0x0000000020000894       0x10 CMakeFiles/HandGest.dir/home/anonxx/pico/pico-sdk/src/rp2_common/hardware_timer/timer.c.obj
 .bss.claimed   0x00000000200008a4        0x4 CMakeFiles/HandGest.dir/home/anonxx/pico/pico-sdk/src/rp2_common/hardware_sync/sync.c.obj
 .bss.configured_freq
                0x00000000200008a8       0x28 CMakeFiles/HandGest.dir/home/anonxx/pico/pico-sdk/src/rp2_common/hardware_clocks/clocks.c.obj
 .bss.default_alarm_pool_entry_ids_high
                0x00000000200008d0       0x10 CMakeFiles/HandGest.dir/home/anonxx/pico/pico-sdk/src/common/pico_time/time.c.obj
 .bss.default_alarm_pool_heap_nodes
                0x00000000200008e0       0x30 CMakeFiles/HandGest.dir/home/anonxx/pico/pico-sdk/src/common/pico_time/time.c.obj
 .bss.desc_str.6923
                0x0000000020000910       0x28 CMakeFiles/HandGest.dir/home/anonxx/pico/pico-sdk/src/rp2_common/pico_stdio_usb/stdio_usb_descriptors.c.obj
 .bss.drivers   0x0000000020000938        0x4 CMakeFiles/HandGest.dir/home/anonxx/pico/pico-sdk/src/rp2_common/pico_stdio/stdio.c.obj
 .bss.filter    0x000000002000093c        0x4 CMakeFiles/HandGest.dir/home/anonxx/pico/pico-sdk/src/rp2_common/pico_stdio/stdio.c.obj
 .bss.hw_endpoints
                0x0000000020000940      0x680 CMakeFiles/HandGest.dir/home/anonxx/pico/pico-sdk/lib/tinyusb/src/portable/raspberrypi/rp2040/dcd_rp2040.c.obj
 .bss.load_value
                0x0000000020000fc0        0x4 CMakeFiles/HandGest.dir/home/anonxx/pico/pico-sdk/src/rp2_common/hardware_watchdog/watchdog.c.obj
 .bss.next_buffer_ptr
                0x0000000020000fc4        0x4 CMakeFiles/HandGest.dir/home/anonxx/pico/pico-sdk/lib/tinyusb/src/portable/raspberrypi/rp2040/dcd_rp2040.c.obj
 .bss.pools     0x0000000020000fc8       0x10 CMakeFiles/HandGest.dir/home/anonxx/pico/pico-sdk/src/common/pico_time/time.c.obj
 .bss.stdio_usb_mutex
                0x0000000020000fd8        0x8 CMakeFiles/HandGest.dir/home/anonxx/pico/pico-sdk/src/rp2_common/pico_stdio_usb/stdio_usb.c.obj
 .bss.target_hi
                0x0000000020000fe0       0x10 CMakeFiles/HandGest.dir/home/anonxx/pico/pico-sdk/src/rp2_common/hardware_timer/timer.c.obj
 .bss.uart_instance
                0x0000000020000ff0        0x4 CMakeFiles/HandGest.dir/home/anonxx/pico/pico-sdk/src/rp2_common/pico_stdio_uart/stdio_uart.c.obj
 .bss._app_driver_count
                0x0000000020000ff4        0x1 CMakeFiles/HandGest.dir/home/anonxx/pico/pico-sdk/lib/tinyusb/src/device/usbd.c.obj
 .bss._initialized
                0x0000000020000ff5        0x1 CMakeFiles/HandGest.dir/home/anonxx/pico/pico-sdk/lib/tinyusb/src/tusb.c.obj
 .bss.assigned_address
                0x0000000020000ff6        0x1 CMakeFiles/HandGest.dir/home/anonxx/pico/pico-sdk/lib/tinyusb/src/portable/raspberrypi/rp2040/dcd_rp2040.c.obj
 .bss.claimed   0x0000000020000ff7        0x1 CMakeFiles/HandGest.dir/home/anonxx/pico/pico-sdk/src/rp2_common/hardware_timer/timer.c.obj
 .bss.irq_hander_chain_free_slot_head
                0x0000000020000ff8        0x1 CMakeFiles/HandGest.dir/home/anonxx/pico/pico-sdk/src/rp2_common/hardware_irq/irq.c.obj
 .bss.itf_num   0x0000000020000ff9        0x1 CMakeFiles/HandGest.dir/home/anonxx/pico/pico-sdk/src/rp2_common/pico_stdio_usb/reset_interface.c.obj
 .bss.timer_callbacks_pending
                0x0000000020000ffa        0x1 CMakeFiles/HandGest.dir/home/anonxx/pico/pico-sdk/src/rp2_common/hardware_timer/timer.c.obj
 *(COMMON)
 *fill*         0x0000000020000ffb        0x1 
 COMMON         0x0000000020000ffc        0x4 CMakeFiles/HandGest.dir/home/anonxx/pico/pico-sdk/src/rp2_common/hardware_uart/uart.c.obj
                0x0000000020000ffc                uart_char_to_line_feed
 COMMON         0x0000000020001000      0x100 CMakeFiles/HandGest.dir/home/anonxx/pico/pico-sdk/src/rp2_common/pico_double/double_init_rom.c.obj
                0x0000000020001000                sd_table
 COMMON         0x0000000020001100      0x104 CMakeFiles/HandGest.dir/home/anonxx/pico/pico-sdk/src/rp2_common/pico_float/float_init_rom.c.obj
                0x0000000020001100                sf_table
                0x0000000020001200                sf_clz_func
 COMMON         0x0000000020001204       0xc0 CMakeFiles/HandGest.dir/home/anonxx/pico/pico-sdk/lib/tinyusb/src/device/usbd.c.obj
                0x0000000020001204                _usbd_qdef_buf
                0x00000000200012c4                . = ALIGN (0x4)
                0x00000000200012c4                __bss_end__ = .

.heap           0x00000000200012c4      0x800
                0x00000000200012c4                __end__ = .
                0x00000000200012c4                end = __end__
 *(.heap*)
 .heap          0x00000000200012c4      0x800 CMakeFiles/HandGest.dir/home/anonxx/pico/pico-sdk/src/rp2_common/pico_standard_link/crt0.S.obj
                0x0000000020001ac4                __HeapLimit = .

.stack1_dummy   0x0000000020040000        0x0
 *(.stack1*)

.stack_dummy    0x0000000020041000      0x800
 *(.stack*)
 .stack         0x0000000020041000      0x800 CMakeFiles/HandGest.dir/home/anonxx/pico/pico-sdk/src/rp2_common/pico_standard_link/crt0.S.obj

.flash_end      0x000000001000835c        0x0
                0x000000001000835c                __flash_binary_end = .
                0x0000000020040000                __StackLimit = (ORIGIN (RAM) + LENGTH (RAM))
                0x0000000020041000                __StackOneTop = (ORIGIN (SCRATCH_X) + LENGTH (SCRATCH_X))
                0x0000000020042000                __StackTop = (ORIGIN (SCRATCH_Y) + LENGTH (SCRATCH_Y))
                0x0000000020041000                __StackOneBottom = (__StackOneTop - SIZEOF (.stack1_dummy))
                0x0000000020041800                __StackBottom = (__StackTop - SIZEOF (.stack_dummy))
                0x0000000020042000                PROVIDE (__stack = __StackTop)
                0x0000000000000001                ASSERT ((__StackLimit >= __HeapLimit), region RAM overflowed)
                0x0000000000000001                ASSERT (((__binary_info_header_end - __logical_binary_start) <= 0x100), Binary info must be in first 256 bytes of the binary)
LOAD CMakeFiles/HandGest.dir/HandGest.c.obj
LOAD CMakeFiles/HandGest.dir/home/anonxx/pico/pico-sdk/src/rp2_common/pico_stdlib/stdlib.c.obj
LOAD CMakeFiles/HandGest.dir/home/anonxx/pico/pico-sdk/src/rp2_common/hardware_gpio/gpio.c.obj
LOAD CMakeFiles/HandGest.dir/home/anonxx/pico/pico-sdk/src/rp2_common/hardware_claim/claim.c.obj
LOAD CMakeFiles/HandGest.dir/home/anonxx/pico/pico-sdk/src/rp2_common/hardware_sync/sync.c.obj
LOAD CMakeFiles/HandGest.dir/home/anonxx/pico/pico-sdk/src/rp2_common/pico_platform/platform.c.obj
LOAD CMakeFiles/HandGest.dir/home/anonxx/pico/pico-sdk/src/rp2_common/hardware_uart/uart.c.obj
LOAD CMakeFiles/HandGest.dir/home/anonxx/pico/pico-sdk/src/rp2_common/hardware_divider/divider.S.obj
LOAD CMakeFiles/HandGest.dir/home/anonxx/pico/pico-sdk/src/common/pico_time/time.c.obj
LOAD CMakeFiles/HandGest.dir/home/anonxx/pico/pico-sdk/src/common/pico_time/timeout_helper.c.obj
LOAD CMakeFiles/HandGest.dir/home/anonxx/pico/pico-sdk/src/rp2_common/hardware_timer/timer.c.obj
LOAD CMakeFiles/HandGest.dir/home/anonxx/pico/pico-sdk/src/common/pico_sync/sem.c.obj
LOAD CMakeFiles/HandGest.dir/home/anonxx/pico/pico-sdk/src/common/pico_sync/lock_core.c.obj
LOAD CMakeFiles/HandGest.dir/home/anonxx/pico/pico-sdk/src/common/pico_sync/mutex.c.obj
LOAD CMakeFiles/HandGest.dir/home/anonxx/pico/pico-sdk/src/common/pico_sync/critical_section.c.obj
LOAD CMakeFiles/HandGest.dir/home/anonxx/pico/pico-sdk/src/common/pico_util/datetime.c.obj
LOAD CMakeFiles/HandGest.dir/home/anonxx/pico/pico-sdk/src/common/pico_util/pheap.c.obj
LOAD CMakeFiles/HandGest.dir/home/anonxx/pico/pico-sdk/src/common/pico_util/queue.c.obj
LOAD CMakeFiles/HandGest.dir/home/anonxx/pico/pico-sdk/src/rp2_common/pico_runtime/runtime.c.obj
LOAD CMakeFiles/HandGest.dir/home/anonxx/pico/pico-sdk/src/rp2_common/hardware_clocks/clocks.c.obj
LOAD CMakeFiles/HandGest.dir/home/anonxx/pico/pico-sdk/src/rp2_common/hardware_watchdog/watchdog.c.obj
LOAD CMakeFiles/HandGest.dir/home/anonxx/pico/pico-sdk/src/rp2_common/hardware_xosc/xosc.c.obj
LOAD CMakeFiles/HandGest.dir/home/anonxx/pico/pico-sdk/src/rp2_common/hardware_pll/pll.c.obj
LOAD CMakeFiles/HandGest.dir/home/anonxx/pico/pico-sdk/src/rp2_common/hardware_vreg/vreg.c.obj
LOAD CMakeFiles/HandGest.dir/home/anonxx/pico/pico-sdk/src/rp2_common/hardware_irq/irq.c.obj
LOAD CMakeFiles/HandGest.dir/home/anonxx/pico/pico-sdk/src/rp2_common/hardware_irq/irq_handler_chain.S.obj
LOAD CMakeFiles/HandGest.dir/home/anonxx/pico/pico-sdk/src/rp2_common/pico_printf/printf.c.obj
LOAD CMakeFiles/HandGest.dir/home/anonxx/pico/pico-sdk/src/rp2_common/pico_bit_ops/bit_ops_aeabi.S.obj
LOAD CMakeFiles/HandGest.dir/home/anonxx/pico/pico-sdk/src/rp2_common/pico_bootrom/bootrom.c.obj
LOAD CMakeFiles/HandGest.dir/home/anonxx/pico/pico-sdk/src/rp2_common/pico_divider/divider.S.obj
LOAD CMakeFiles/HandGest.dir/home/anonxx/pico/pico-sdk/src/rp2_common/pico_double/double_aeabi.S.obj
LOAD CMakeFiles/HandGest.dir/home/anonxx/pico/pico-sdk/src/rp2_common/pico_double/double_init_rom.c.obj
LOAD CMakeFiles/HandGest.dir/home/anonxx/pico/pico-sdk/src/rp2_common/pico_double/double_math.c.obj
LOAD CMakeFiles/HandGest.dir/home/anonxx/pico/pico-sdk/src/rp2_common/pico_double/double_v1_rom_shim.S.obj
LOAD CMakeFiles/HandGest.dir/home/anonxx/pico/pico-sdk/src/rp2_common/pico_int64_ops/pico_int64_ops_aeabi.S.obj
LOAD CMakeFiles/HandGest.dir/home/anonxx/pico/pico-sdk/src/rp2_common/pico_float/float_aeabi.S.obj
LOAD CMakeFiles/HandGest.dir/home/anonxx/pico/pico-sdk/src/rp2_common/pico_float/float_init_rom.c.obj
LOAD CMakeFiles/HandGest.dir/home/anonxx/pico/pico-sdk/src/rp2_common/pico_float/float_math.c.obj
LOAD CMakeFiles/HandGest.dir/home/anonxx/pico/pico-sdk/src/rp2_common/pico_float/float_v1_rom_shim.S.obj
LOAD CMakeFiles/HandGest.dir/home/anonxx/pico/pico-sdk/src/rp2_common/pico_malloc/pico_malloc.c.obj
LOAD CMakeFiles/HandGest.dir/home/anonxx/pico/pico-sdk/src/rp2_common/pico_mem_ops/mem_ops_aeabi.S.obj
LOAD CMakeFiles/HandGest.dir/home/anonxx/pico/pico-sdk/src/rp2_common/pico_standard_link/crt0.S.obj
LOAD CMakeFiles/HandGest.dir/home/anonxx/pico/pico-sdk/src/rp2_common/pico_standard_link/new_delete.cpp.obj
LOAD CMakeFiles/HandGest.dir/home/anonxx/pico/pico-sdk/src/rp2_common/pico_standard_link/binary_info.c.obj
LOAD CMakeFiles/HandGest.dir/home/anonxx/pico/pico-sdk/src/rp2_common/pico_stdio/stdio.c.obj
LOAD CMakeFiles/HandGest.dir/home/anonxx/pico/pico-sdk/src/rp2_common/pico_stdio_uart/stdio_uart.c.obj
LOAD CMakeFiles/HandGest.dir/home/anonxx/pico/pico-sdk/src/rp2_common/pico_stdio_usb/reset_interface.c.obj
LOAD CMakeFiles/HandGest.dir/home/anonxx/pico/pico-sdk/src/rp2_common/pico_stdio_usb/stdio_usb.c.obj
LOAD CMakeFiles/HandGest.dir/home/anonxx/pico/pico-sdk/src/rp2_common/pico_stdio_usb/stdio_usb_descriptors.c.obj
LOAD CMakeFiles/HandGest.dir/home/anonxx/pico/pico-sdk/lib/tinyusb/src/portable/raspberrypi/rp2040/dcd_rp2040.c.obj
LOAD CMakeFiles/HandGest.dir/home/anonxx/pico/pico-sdk/lib/tinyusb/src/portable/raspberrypi/rp2040/rp2040_usb.c.obj
LOAD CMakeFiles/HandGest.dir/home/anonxx/pico/pico-sdk/lib/tinyusb/src/device/usbd.c.obj
LOAD CMakeFiles/HandGest.dir/home/anonxx/pico/pico-sdk/lib/tinyusb/src/device/usbd_control.c.obj
LOAD CMakeFiles/HandGest.dir/home/anonxx/pico/pico-sdk/lib/tinyusb/src/class/audio/audio_device.c.obj
LOAD CMakeFiles/HandGest.dir/home/anonxx/pico/pico-sdk/lib/tinyusb/src/class/cdc/cdc_device.c.obj
LOAD CMakeFiles/HandGest.dir/home/anonxx/pico/pico-sdk/lib/tinyusb/src/class/dfu/dfu_rt_device.c.obj
LOAD CMakeFiles/HandGest.dir/home/anonxx/pico/pico-sdk/lib/tinyusb/src/class/hid/hid_device.c.obj
LOAD CMakeFiles/HandGest.dir/home/anonxx/pico/pico-sdk/lib/tinyusb/src/class/midi/midi_device.c.obj
LOAD CMakeFiles/HandGest.dir/home/anonxx/pico/pico-sdk/lib/tinyusb/src/class/msc/msc_device.c.obj
LOAD CMakeFiles/HandGest.dir/home/anonxx/pico/pico-sdk/lib/tinyusb/src/class/net/net_device.c.obj
LOAD CMakeFiles/HandGest.dir/home/anonxx/pico/pico-sdk/lib/tinyusb/src/class/usbtmc/usbtmc_device.c.obj
LOAD CMakeFiles/HandGest.dir/home/anonxx/pico/pico-sdk/lib/tinyusb/src/class/vendor/vendor_device.c.obj
LOAD CMakeFiles/HandGest.dir/home/anonxx/pico/pico-sdk/lib/tinyusb/src/tusb.c.obj
LOAD CMakeFiles/HandGest.dir/home/anonxx/pico/pico-sdk/lib/tinyusb/src/common/tusb_fifo.c.obj
LOAD CMakeFiles/HandGest.dir/home/anonxx/pico/pico-sdk/src/rp2_common/pico_fix/rp2040_usb_device_enumeration/rp2040_usb_device_enumeration.c.obj
LOAD /tmp/ccLCwxu1.o
LOAD /usr/lib/gcc/arm-none-eabi/9.2.1/../../../arm-none-eabi/lib/thumb/v6-m/nofp/libstdc++.a
LOAD /usr/lib/gcc/arm-none-eabi/9.2.1/../../../arm-none-eabi/lib/thumb/v6-m/nofp/libm.a
START GROUP
LOAD /usr/lib/gcc/arm-none-eabi/9.2.1/thumb/v6-m/nofp/libgcc.a
LOAD /usr/lib/gcc/arm-none-eabi/9.2.1/../../../arm-none-eabi/lib/thumb/v6-m/nofp/libg.a
LOAD /usr/lib/gcc/arm-none-eabi/9.2.1/../../../arm-none-eabi/lib/thumb/v6-m/nofp/libc.a
END GROUP
START GROUP
LOAD /usr/lib/gcc/arm-none-eabi/9.2.1/thumb/v6-m/nofp/libgcc.a
LOAD /usr/lib/gcc/arm-none-eabi/9.2.1/../../../arm-none-eabi/lib/thumb/v6-m/nofp/libc.a
LOAD /usr/lib/gcc/arm-none-eabi/9.2.1/../../../arm-none-eabi/lib/thumb/v6-m/nofp/libnosys.a
END GROUP
LOAD /usr/lib/gcc/arm-none-eabi/9.2.1/thumb/v6-m/nofp/crtend.o
LOAD /usr/lib/gcc/arm-none-eabi/9.2.1/thumb/v6-m/nofp/crtn.o
OUTPUT(HandGest.elf elf32-littlearm)
LOAD linker stubs

.ARM.attributes
                0x0000000000000000       0x28
 .ARM.attributes
                0x0000000000000000       0x1e /usr/lib/gcc/arm-none-eabi/9.2.1/thumb/v6-m/nofp/crti.o
 .ARM.attributes
                0x000000000000001e       0x2c /usr/lib/gcc/arm-none-eabi/9.2.1/thumb/v6-m/nofp/crtbegin.o
 .ARM.attributes
                0x000000000000004a       0x2c CMakeFiles/HandGest.dir/HandGest.c.obj
 .ARM.attributes
                0x0000000000000076       0x2c CMakeFiles/HandGest.dir/home/anonxx/pico/pico-sdk/src/rp2_common/hardware_gpio/gpio.c.obj
 .ARM.attributes
                0x00000000000000a2       0x2c CMakeFiles/HandGest.dir/home/anonxx/pico/pico-sdk/src/rp2_common/hardware_claim/claim.c.obj
 .ARM.attributes
                0x00000000000000ce       0x2c CMakeFiles/HandGest.dir/home/anonxx/pico/pico-sdk/src/rp2_common/hardware_sync/sync.c.obj
 .ARM.attributes
                0x00000000000000fa       0x2c CMakeFiles/HandGest.dir/home/anonxx/pico/pico-sdk/src/rp2_common/pico_platform/platform.c.obj
 .ARM.attributes
                0x0000000000000126       0x2c CMakeFiles/HandGest.dir/home/anonxx/pico/pico-sdk/src/rp2_common/hardware_uart/uart.c.obj
 .ARM.attributes
                0x0000000000000152       0x2c CMakeFiles/HandGest.dir/home/anonxx/pico/pico-sdk/src/common/pico_time/time.c.obj
 .ARM.attributes
                0x000000000000017e       0x2c CMakeFiles/HandGest.dir/home/anonxx/pico/pico-sdk/src/rp2_common/hardware_timer/timer.c.obj
 .ARM.attributes
                0x00000000000001aa       0x2c CMakeFiles/HandGest.dir/home/anonxx/pico/pico-sdk/src/common/pico_sync/lock_core.c.obj
 .ARM.attributes
                0x00000000000001d6       0x2c CMakeFiles/HandGest.dir/home/anonxx/pico/pico-sdk/src/common/pico_sync/mutex.c.obj
 .ARM.attributes
                0x0000000000000202       0x2c CMakeFiles/HandGest.dir/home/anonxx/pico/pico-sdk/src/common/pico_sync/critical_section.c.obj
 .ARM.attributes
                0x000000000000022e       0x2c CMakeFiles/HandGest.dir/home/anonxx/pico/pico-sdk/src/common/pico_util/pheap.c.obj
 .ARM.attributes
                0x000000000000025a       0x2c CMakeFiles/HandGest.dir/home/anonxx/pico/pico-sdk/src/rp2_common/pico_runtime/runtime.c.obj
 .ARM.attributes
                0x0000000000000286       0x2c CMakeFiles/HandGest.dir/home/anonxx/pico/pico-sdk/src/rp2_common/hardware_clocks/clocks.c.obj
 .ARM.attributes
                0x00000000000002b2       0x2c CMakeFiles/HandGest.dir/home/anonxx/pico/pico-sdk/src/rp2_common/hardware_watchdog/watchdog.c.obj
 .ARM.attributes
                0x00000000000002de       0x2c CMakeFiles/HandGest.dir/home/anonxx/pico/pico-sdk/src/rp2_common/hardware_xosc/xosc.c.obj
 .ARM.attributes
                0x000000000000030a       0x2c CMakeFiles/HandGest.dir/home/anonxx/pico/pico-sdk/src/rp2_common/hardware_pll/pll.c.obj
 .ARM.attributes
                0x0000000000000336       0x2c CMakeFiles/HandGest.dir/home/anonxx/pico/pico-sdk/src/rp2_common/hardware_irq/irq.c.obj
 .ARM.attributes
                0x0000000000000362       0x22 CMakeFiles/HandGest.dir/home/anonxx/pico/pico-sdk/src/rp2_common/hardware_irq/irq_handler_chain.S.obj
 .ARM.attributes
                0x0000000000000384       0x2c CMakeFiles/HandGest.dir/home/anonxx/pico/pico-sdk/src/rp2_common/pico_printf/printf.c.obj
 .ARM.attributes
                0x00000000000003b0       0x22 CMakeFiles/HandGest.dir/home/anonxx/pico/pico-sdk/src/rp2_common/pico_bit_ops/bit_ops_aeabi.S.obj
 .ARM.attributes
                0x00000000000003d2       0x2c CMakeFiles/HandGest.dir/home/anonxx/pico/pico-sdk/src/rp2_common/pico_bootrom/bootrom.c.obj
 .ARM.attributes
                0x00000000000003fe       0x22 CMakeFiles/HandGest.dir/home/anonxx/pico/pico-sdk/src/rp2_common/pico_divider/divider.S.obj
 .ARM.attributes
                0x0000000000000420       0x22 CMakeFiles/HandGest.dir/home/anonxx/pico/pico-sdk/src/rp2_common/pico_double/double_aeabi.S.obj
 .ARM.attributes
                0x0000000000000442       0x2c CMakeFiles/HandGest.dir/home/anonxx/pico/pico-sdk/src/rp2_common/pico_double/double_init_rom.c.obj
 .ARM.attributes
                0x000000000000046e       0x22 CMakeFiles/HandGest.dir/home/anonxx/pico/pico-sdk/src/rp2_common/pico_double/double_v1_rom_shim.S.obj
 .ARM.attributes
                0x0000000000000490       0x22 CMakeFiles/HandGest.dir/home/anonxx/pico/pico-sdk/src/rp2_common/pico_int64_ops/pico_int64_ops_aeabi.S.obj
 .ARM.attributes
                0x00000000000004b2       0x22 CMakeFiles/HandGest.dir/home/anonxx/pico/pico-sdk/src/rp2_common/pico_float/float_aeabi.S.obj
 .ARM.attributes
                0x00000000000004d4       0x2c CMakeFiles/HandGest.dir/home/anonxx/pico/pico-sdk/src/rp2_common/pico_float/float_init_rom.c.obj
 .ARM.attributes
                0x0000000000000500       0x22 CMakeFiles/HandGest.dir/home/anonxx/pico/pico-sdk/src/rp2_common/pico_float/float_v1_rom_shim.S.obj
 .ARM.attributes
                0x0000000000000522       0x22 CMakeFiles/HandGest.dir/home/anonxx/pico/pico-sdk/src/rp2_common/pico_mem_ops/mem_ops_aeabi.S.obj
 .ARM.attributes
                0x0000000000000544       0x22 CMakeFiles/HandGest.dir/home/anonxx/pico/pico-sdk/src/rp2_common/pico_standard_link/crt0.S.obj
 .ARM.attributes
                0x0000000000000566       0x32 CMakeFiles/HandGest.dir/home/anonxx/pico/pico-sdk/src/rp2_common/pico_standard_link/binary_info.c.obj
 .ARM.attributes
                0x0000000000000598       0x2c CMakeFiles/HandGest.dir/home/anonxx/pico/pico-sdk/src/rp2_common/pico_stdio/stdio.c.obj
 .ARM.attributes
                0x00000000000005c4       0x2c CMakeFiles/HandGest.dir/home/anonxx/pico/pico-sdk/src/rp2_common/pico_stdio_uart/stdio_uart.c.obj
 .ARM.attributes
                0x00000000000005f0       0x2c CMakeFiles/HandGest.dir/home/anonxx/pico/pico-sdk/src/rp2_common/pico_stdio_usb/reset_interface.c.obj
 .ARM.attributes
                0x000000000000061c       0x2c CMakeFiles/HandGest.dir/home/anonxx/pico/pico-sdk/src/rp2_common/pico_stdio_usb/stdio_usb.c.obj
 .ARM.attributes
                0x0000000000000648       0x2c CMakeFiles/HandGest.dir/home/anonxx/pico/pico-sdk/src/rp2_common/pico_stdio_usb/stdio_usb_descriptors.c.obj
 .ARM.attributes
                0x0000000000000674       0x2c CMakeFiles/HandGest.dir/home/anonxx/pico/pico-sdk/lib/tinyusb/src/portable/raspberrypi/rp2040/dcd_rp2040.c.obj
 .ARM.attributes
                0x00000000000006a0       0x2c CMakeFiles/HandGest.dir/home/anonxx/pico/pico-sdk/lib/tinyusb/src/portable/raspberrypi/rp2040/rp2040_usb.c.obj
 .ARM.attributes
                0x00000000000006cc       0x2c CMakeFiles/HandGest.dir/home/anonxx/pico/pico-sdk/lib/tinyusb/src/device/usbd.c.obj
 .ARM.attributes
                0x00000000000006f8       0x2c CMakeFiles/HandGest.dir/home/anonxx/pico/pico-sdk/lib/tinyusb/src/device/usbd_control.c.obj
 .ARM.attributes
                0x0000000000000724       0x2c CMakeFiles/HandGest.dir/home/anonxx/pico/pico-sdk/lib/tinyusb/src/class/cdc/cdc_device.c.obj
 .ARM.attributes
                0x0000000000000750       0x2c CMakeFiles/HandGest.dir/home/anonxx/pico/pico-sdk/lib/tinyusb/src/tusb.c.obj
 .ARM.attributes
                0x000000000000077c       0x2c CMakeFiles/HandGest.dir/home/anonxx/pico/pico-sdk/lib/tinyusb/src/common/tusb_fifo.c.obj
 .ARM.attributes
                0x00000000000007a8       0x22 /tmp/ccLCwxu1.o
 .ARM.attributes
                0x00000000000007ca       0x1e /usr/lib/gcc/arm-none-eabi/9.2.1/thumb/v6-m/nofp/libgcc.a(_dvmd_tls.o)
 .ARM.attributes
                0x00000000000007e8       0x2c /usr/lib/gcc/arm-none-eabi/9.2.1/../../../arm-none-eabi/lib/thumb/v6-m/nofp/libg.a(lib_a-strlen-stub.o)
 .ARM.attributes
                0x0000000000000814       0x2c /usr/lib/gcc/arm-none-eabi/9.2.1/thumb/v6-m/nofp/crtend.o

.comment        0x0000000000000000       0xa7
 .comment       0x0000000000000000       0x59 /usr/lib/gcc/arm-none-eabi/9.2.1/thumb/v6-m/nofp/crtbegin.o
                                         0x5a (size before relaxing)
 .comment       0x0000000000000059       0x5a CMakeFiles/HandGest.dir/HandGest.c.obj
 .comment       0x0000000000000059       0x5a CMakeFiles/HandGest.dir/home/anonxx/pico/pico-sdk/src/rp2_common/hardware_gpio/gpio.c.obj
 .comment       0x0000000000000059       0x5a CMakeFiles/HandGest.dir/home/anonxx/pico/pico-sdk/src/rp2_common/hardware_claim/claim.c.obj
 .comment       0x0000000000000059       0x5a CMakeFiles/HandGest.dir/home/anonxx/pico/pico-sdk/src/rp2_common/hardware_sync/sync.c.obj
 .comment       0x0000000000000059       0x5a CMakeFiles/HandGest.dir/home/anonxx/pico/pico-sdk/src/rp2_common/pico_platform/platform.c.obj
 .comment       0x0000000000000059       0x5a CMakeFiles/HandGest.dir/home/anonxx/pico/pico-sdk/src/rp2_common/hardware_uart/uart.c.obj
 .comment       0x0000000000000059       0x5a CMakeFiles/HandGest.dir/home/anonxx/pico/pico-sdk/src/common/pico_time/time.c.obj
 .comment       0x0000000000000059       0x5a CMakeFiles/HandGest.dir/home/anonxx/pico/pico-sdk/src/rp2_common/hardware_timer/timer.c.obj
 .comment       0x0000000000000059       0x5a CMakeFiles/HandGest.dir/home/anonxx/pico/pico-sdk/src/common/pico_sync/lock_core.c.obj
 .comment       0x0000000000000059       0x5a CMakeFiles/HandGest.dir/home/anonxx/pico/pico-sdk/src/common/pico_sync/mutex.c.obj
 .comment       0x0000000000000059       0x5a CMakeFiles/HandGest.dir/home/anonxx/pico/pico-sdk/src/common/pico_sync/critical_section.c.obj
 .comment       0x0000000000000059       0x5a CMakeFiles/HandGest.dir/home/anonxx/pico/pico-sdk/src/common/pico_util/pheap.c.obj
 .comment       0x0000000000000059       0x5a CMakeFiles/HandGest.dir/home/anonxx/pico/pico-sdk/src/rp2_common/pico_runtime/runtime.c.obj
 .comment       0x0000000000000059       0x5a CMakeFiles/HandGest.dir/home/anonxx/pico/pico-sdk/src/rp2_common/hardware_clocks/clocks.c.obj
 .comment       0x0000000000000059       0x5a CMakeFiles/HandGest.dir/home/anonxx/pico/pico-sdk/src/rp2_common/hardware_watchdog/watchdog.c.obj
 .comment       0x0000000000000059       0x5a CMakeFiles/HandGest.dir/home/anonxx/pico/pico-sdk/src/rp2_common/hardware_xosc/xosc.c.obj
 .comment       0x0000000000000059       0x5a CMakeFiles/HandGest.dir/home/anonxx/pico/pico-sdk/src/rp2_common/hardware_pll/pll.c.obj
 .comment       0x0000000000000059       0x5a CMakeFiles/HandGest.dir/home/anonxx/pico/pico-sdk/src/rp2_common/hardware_irq/irq.c.obj
 .comment       0x0000000000000059       0x5a CMakeFiles/HandGest.dir/home/anonxx/pico/pico-sdk/src/rp2_common/pico_printf/printf.c.obj
 .comment       0x0000000000000059       0x5a CMakeFiles/HandGest.dir/home/anonxx/pico/pico-sdk/src/rp2_common/pico_bootrom/bootrom.c.obj
 .comment       0x0000000000000059       0x5a CMakeFiles/HandGest.dir/home/anonxx/pico/pico-sdk/src/rp2_common/pico_double/double_init_rom.c.obj
 .comment       0x0000000000000059       0x5a CMakeFiles/HandGest.dir/home/anonxx/pico/pico-sdk/src/rp2_common/pico_float/float_init_rom.c.obj
 .comment       0x0000000000000059       0x5a CMakeFiles/HandGest.dir/home/anonxx/pico/pico-sdk/src/rp2_common/pico_standard_link/binary_info.c.obj
 .comment       0x0000000000000059       0x5a CMakeFiles/HandGest.dir/home/anonxx/pico/pico-sdk/src/rp2_common/pico_stdio/stdio.c.obj
 .comment       0x0000000000000059       0x5a CMakeFiles/HandGest.dir/home/anonxx/pico/pico-sdk/src/rp2_common/pico_stdio_uart/stdio_uart.c.obj
 .comment       0x0000000000000059       0x5a CMakeFiles/HandGest.dir/home/anonxx/pico/pico-sdk/src/rp2_common/pico_stdio_usb/reset_interface.c.obj
 .comment       0x0000000000000059       0x5a CMakeFiles/HandGest.dir/home/anonxx/pico/pico-sdk/src/rp2_common/pico_stdio_usb/stdio_usb.c.obj
 .comment       0x0000000000000059       0x5a CMakeFiles/HandGest.dir/home/anonxx/pico/pico-sdk/src/rp2_common/pico_stdio_usb/stdio_usb_descriptors.c.obj
 .comment       0x0000000000000059       0x5a CMakeFiles/HandGest.dir/home/anonxx/pico/pico-sdk/lib/tinyusb/src/portable/raspberrypi/rp2040/dcd_rp2040.c.obj
 .comment       0x0000000000000059       0x5a CMakeFiles/HandGest.dir/home/anonxx/pico/pico-sdk/lib/tinyusb/src/portable/raspberrypi/rp2040/rp2040_usb.c.obj
 .comment       0x0000000000000059       0x5a CMakeFiles/HandGest.dir/home/anonxx/pico/pico-sdk/lib/tinyusb/src/device/usbd.c.obj
 .comment       0x0000000000000059       0x5a CMakeFiles/HandGest.dir/home/anonxx/pico/pico-sdk/lib/tinyusb/src/device/usbd_control.c.obj
 .comment       0x0000000000000059       0x5a CMakeFiles/HandGest.dir/home/anonxx/pico/pico-sdk/lib/tinyusb/src/class/cdc/cdc_device.c.obj
 .comment       0x0000000000000059       0x5a CMakeFiles/HandGest.dir/home/anonxx/pico/pico-sdk/lib/tinyusb/src/tusb.c.obj
 .comment       0x0000000000000059       0x5a CMakeFiles/HandGest.dir/home/anonxx/pico/pico-sdk/lib/tinyusb/src/common/tusb_fifo.c.obj
 .comment       0x0000000000000059       0x4e /usr/lib/gcc/arm-none-eabi/9.2.1/../../../arm-none-eabi/lib/thumb/v6-m/nofp/libg.a(lib_a-strlen-stub.o)
                                         0x4f (size before relaxing)
 .comment       0x00000000000000a7       0x5a /usr/lib/gcc/arm-none-eabi/9.2.1/thumb/v6-m/nofp/crtend.o

.debug_info     0x0000000000000000    0x2844f
 .debug_info    0x0000000000000000      0x9e1 CMakeFiles/HandGest.dir/HandGest.c.obj
 .debug_info    0x00000000000009e1     0x1111 CMakeFiles/HandGest.dir/home/anonxx/pico/pico-sdk/src/rp2_common/hardware_gpio/gpio.c.obj
 .debug_info    0x0000000000001af2      0x608 CMakeFiles/HandGest.dir/home/anonxx/pico/pico-sdk/src/rp2_common/hardware_claim/claim.c.obj
 .debug_info    0x00000000000020fa      0x48d CMakeFiles/HandGest.dir/home/anonxx/pico/pico-sdk/src/rp2_common/hardware_sync/sync.c.obj
 .debug_info    0x0000000000002587      0x1cb CMakeFiles/HandGest.dir/home/anonxx/pico/pico-sdk/src/rp2_common/pico_platform/platform.c.obj
 .debug_info    0x0000000000002752      0xb2d CMakeFiles/HandGest.dir/home/anonxx/pico/pico-sdk/src/rp2_common/hardware_uart/uart.c.obj
 .debug_info    0x000000000000327f     0x4038 CMakeFiles/HandGest.dir/home/anonxx/pico/pico-sdk/src/common/pico_time/time.c.obj
 .debug_info    0x00000000000072b7     0x1007 CMakeFiles/HandGest.dir/home/anonxx/pico/pico-sdk/src/rp2_common/hardware_timer/timer.c.obj
 .debug_info    0x00000000000082be      0x16f CMakeFiles/HandGest.dir/home/anonxx/pico/pico-sdk/src/common/pico_sync/lock_core.c.obj
 .debug_info    0x000000000000842d      0xd97 CMakeFiles/HandGest.dir/home/anonxx/pico/pico-sdk/src/common/pico_sync/mutex.c.obj
 .debug_info    0x00000000000091c4      0x2b0 CMakeFiles/HandGest.dir/home/anonxx/pico/pico-sdk/src/common/pico_sync/critical_section.c.obj
 .debug_info    0x0000000000009474     0x1aa5 CMakeFiles/HandGest.dir/home/anonxx/pico/pico-sdk/src/common/pico_util/pheap.c.obj
 .debug_info    0x000000000000af19     0x1243 CMakeFiles/HandGest.dir/home/anonxx/pico/pico-sdk/src/rp2_common/pico_runtime/runtime.c.obj
 .debug_info    0x000000000000c15c     0x1007 CMakeFiles/HandGest.dir/home/anonxx/pico/pico-sdk/src/rp2_common/hardware_clocks/clocks.c.obj
 .debug_info    0x000000000000d163      0xd2c CMakeFiles/HandGest.dir/home/anonxx/pico/pico-sdk/src/rp2_common/hardware_watchdog/watchdog.c.obj
 .debug_info    0x000000000000de8f      0x1fc CMakeFiles/HandGest.dir/home/anonxx/pico/pico-sdk/src/rp2_common/hardware_xosc/xosc.c.obj
 .debug_info    0x000000000000e08b      0x37d CMakeFiles/HandGest.dir/home/anonxx/pico/pico-sdk/src/rp2_common/hardware_pll/pll.c.obj
 .debug_info    0x000000000000e408     0x18a5 CMakeFiles/HandGest.dir/home/anonxx/pico/pico-sdk/src/rp2_common/hardware_irq/irq.c.obj
 .debug_info    0x000000000000fcad       0x26 CMakeFiles/HandGest.dir/home/anonxx/pico/pico-sdk/src/rp2_common/hardware_irq/irq_handler_chain.S.obj
 .debug_info    0x000000000000fcd3     0x1fbf CMakeFiles/HandGest.dir/home/anonxx/pico/pico-sdk/src/rp2_common/pico_printf/printf.c.obj
 .debug_info    0x0000000000011c92       0x22 CMakeFiles/HandGest.dir/home/anonxx/pico/pico-sdk/src/rp2_common/pico_bit_ops/bit_ops_aeabi.S.obj
 .debug_info    0x0000000000011cb4      0x20d CMakeFiles/HandGest.dir/home/anonxx/pico/pico-sdk/src/rp2_common/pico_bootrom/bootrom.c.obj
 .debug_info    0x0000000000011ec1       0x22 CMakeFiles/HandGest.dir/home/anonxx/pico/pico-sdk/src/rp2_common/pico_divider/divider.S.obj
 .debug_info    0x0000000000011ee3       0x22 CMakeFiles/HandGest.dir/home/anonxx/pico/pico-sdk/src/rp2_common/pico_double/double_aeabi.S.obj
 .debug_info    0x0000000000011f05      0xaf9 CMakeFiles/HandGest.dir/home/anonxx/pico/pico-sdk/src/rp2_common/pico_double/double_init_rom.c.obj
 .debug_info    0x00000000000129fe       0x22 CMakeFiles/HandGest.dir/home/anonxx/pico/pico-sdk/src/rp2_common/pico_double/double_v1_rom_shim.S.obj
 .debug_info    0x0000000000012a20       0x26 CMakeFiles/HandGest.dir/home/anonxx/pico/pico-sdk/src/rp2_common/pico_int64_ops/pico_int64_ops_aeabi.S.obj
 .debug_info    0x0000000000012a46       0x22 CMakeFiles/HandGest.dir/home/anonxx/pico/pico-sdk/src/rp2_common/pico_float/float_aeabi.S.obj
 .debug_info    0x0000000000012a68      0xb42 CMakeFiles/HandGest.dir/home/anonxx/pico/pico-sdk/src/rp2_common/pico_float/float_init_rom.c.obj
 .debug_info    0x00000000000135aa       0x22 CMakeFiles/HandGest.dir/home/anonxx/pico/pico-sdk/src/rp2_common/pico_float/float_v1_rom_shim.S.obj
 .debug_info    0x00000000000135cc       0x22 CMakeFiles/HandGest.dir/home/anonxx/pico/pico-sdk/src/rp2_common/pico_mem_ops/mem_ops_aeabi.S.obj
 .debug_info    0x00000000000135ee       0x22 CMakeFiles/HandGest.dir/home/anonxx/pico/pico-sdk/src/rp2_common/pico_standard_link/crt0.S.obj
 .debug_info    0x0000000000013610      0x2f7 CMakeFiles/HandGest.dir/home/anonxx/pico/pico-sdk/src/rp2_common/pico_standard_link/binary_info.c.obj
 .debug_info    0x0000000000013907     0x198b CMakeFiles/HandGest.dir/home/anonxx/pico/pico-sdk/src/rp2_common/pico_stdio/stdio.c.obj
 .debug_info    0x0000000000015292      0xbf7 CMakeFiles/HandGest.dir/home/anonxx/pico/pico-sdk/src/rp2_common/pico_stdio_uart/stdio_uart.c.obj
 .debug_info    0x0000000000015e89     0x1148 CMakeFiles/HandGest.dir/home/anonxx/pico/pico-sdk/src/rp2_common/pico_stdio_usb/reset_interface.c.obj
 .debug_info    0x0000000000016fd1     0x16ed CMakeFiles/HandGest.dir/home/anonxx/pico/pico-sdk/src/rp2_common/pico_stdio_usb/stdio_usb.c.obj
 .debug_info    0x00000000000186be      0xef4 CMakeFiles/HandGest.dir/home/anonxx/pico/pico-sdk/src/rp2_common/pico_stdio_usb/stdio_usb_descriptors.c.obj
 .debug_info    0x00000000000195b2     0x233e CMakeFiles/HandGest.dir/home/anonxx/pico/pico-sdk/lib/tinyusb/src/portable/raspberrypi/rp2040/dcd_rp2040.c.obj
 .debug_info    0x000000000001b8f0     0x1534 CMakeFiles/HandGest.dir/home/anonxx/pico/pico-sdk/lib/tinyusb/src/portable/raspberrypi/rp2040/rp2040_usb.c.obj
 .debug_info    0x000000000001ce24     0x4865 CMakeFiles/HandGest.dir/home/anonxx/pico/pico-sdk/lib/tinyusb/src/device/usbd.c.obj
 .debug_info    0x0000000000021689     0x12de CMakeFiles/HandGest.dir/home/anonxx/pico/pico-sdk/lib/tinyusb/src/device/usbd_control.c.obj
 .debug_info    0x0000000000022967     0x2418 CMakeFiles/HandGest.dir/home/anonxx/pico/pico-sdk/lib/tinyusb/src/class/cdc/cdc_device.c.obj
 .debug_info    0x0000000000024d7f      0xddb CMakeFiles/HandGest.dir/home/anonxx/pico/pico-sdk/lib/tinyusb/src/tusb.c.obj
 .debug_info    0x0000000000025b5a     0x1f5c CMakeFiles/HandGest.dir/home/anonxx/pico/pico-sdk/lib/tinyusb/src/common/tusb_fifo.c.obj
 .debug_info    0x0000000000027ab6       0x26 /usr/lib/gcc/arm-none-eabi/9.2.1/thumb/v6-m/nofp/libgcc.a(_dvmd_tls.o)
 .debug_info    0x0000000000027adc      0x973 /usr/lib/gcc/arm-none-eabi/9.2.1/../../../arm-none-eabi/lib/thumb/v6-m/nofp/libg.a(lib_a-strlen-stub.o)

.debug_abbrev   0x0000000000000000     0x73a7
 .debug_abbrev  0x0000000000000000      0x206 CMakeFiles/HandGest.dir/HandGest.c.obj
 .debug_abbrev  0x0000000000000206      0x2f1 CMakeFiles/HandGest.dir/home/anonxx/pico/pico-sdk/src/rp2_common/hardware_gpio/gpio.c.obj
 .debug_abbrev  0x00000000000004f7      0x249 CMakeFiles/HandGest.dir/home/anonxx/pico/pico-sdk/src/rp2_common/hardware_claim/claim.c.obj
 .debug_abbrev  0x0000000000000740      0x1f8 CMakeFiles/HandGest.dir/home/anonxx/pico/pico-sdk/src/rp2_common/hardware_sync/sync.c.obj
 .debug_abbrev  0x0000000000000938       0xeb CMakeFiles/HandGest.dir/home/anonxx/pico/pico-sdk/src/rp2_common/pico_platform/platform.c.obj
 .debug_abbrev  0x0000000000000a23      0x2d8 CMakeFiles/HandGest.dir/home/anonxx/pico/pico-sdk/src/rp2_common/hardware_uart/uart.c.obj
 .debug_abbrev  0x0000000000000cfb      0x60c CMakeFiles/HandGest.dir/home/anonxx/pico/pico-sdk/src/common/pico_time/time.c.obj
 .debug_abbrev  0x0000000000001307      0x321 CMakeFiles/HandGest.dir/home/anonxx/pico/pico-sdk/src/rp2_common/hardware_timer/timer.c.obj
 .debug_abbrev  0x0000000000001628      0x114 CMakeFiles/HandGest.dir/home/anonxx/pico/pico-sdk/src/common/pico_sync/lock_core.c.obj
 .debug_abbrev  0x000000000000173c      0x32a CMakeFiles/HandGest.dir/home/anonxx/pico/pico-sdk/src/common/pico_sync/mutex.c.obj
 .debug_abbrev  0x0000000000001a66      0x1bf CMakeFiles/HandGest.dir/home/anonxx/pico/pico-sdk/src/common/pico_sync/critical_section.c.obj
 .debug_abbrev  0x0000000000001c25      0x3ad CMakeFiles/HandGest.dir/home/anonxx/pico/pico-sdk/src/common/pico_util/pheap.c.obj
 .debug_abbrev  0x0000000000001fd2      0x424 CMakeFiles/HandGest.dir/home/anonxx/pico/pico-sdk/src/rp2_common/pico_runtime/runtime.c.obj
 .debug_abbrev  0x00000000000023f6      0x399 CMakeFiles/HandGest.dir/home/anonxx/pico/pico-sdk/src/rp2_common/hardware_clocks/clocks.c.obj
 .debug_abbrev  0x000000000000278f      0x2d8 CMakeFiles/HandGest.dir/home/anonxx/pico/pico-sdk/src/rp2_common/hardware_watchdog/watchdog.c.obj
 .debug_abbrev  0x0000000000002a67      0x12c CMakeFiles/HandGest.dir/home/anonxx/pico/pico-sdk/src/rp2_common/hardware_xosc/xosc.c.obj
 .debug_abbrev  0x0000000000002b93      0x1d3 CMakeFiles/HandGest.dir/home/anonxx/pico/pico-sdk/src/rp2_common/hardware_pll/pll.c.obj
 .debug_abbrev  0x0000000000002d66      0x48b CMakeFiles/HandGest.dir/home/anonxx/pico/pico-sdk/src/rp2_common/hardware_irq/irq.c.obj
 .debug_abbrev  0x00000000000031f1       0x14 CMakeFiles/HandGest.dir/home/anonxx/pico/pico-sdk/src/rp2_common/hardware_irq/irq_handler_chain.S.obj
 .debug_abbrev  0x0000000000003205      0x4a1 CMakeFiles/HandGest.dir/home/anonxx/pico/pico-sdk/src/rp2_common/pico_printf/printf.c.obj
 .debug_abbrev  0x00000000000036a6       0x12 CMakeFiles/HandGest.dir/home/anonxx/pico/pico-sdk/src/rp2_common/pico_bit_ops/bit_ops_aeabi.S.obj
 .debug_abbrev  0x00000000000036b8       0xf8 CMakeFiles/HandGest.dir/home/anonxx/pico/pico-sdk/src/rp2_common/pico_bootrom/bootrom.c.obj
 .debug_abbrev  0x00000000000037b0       0x12 CMakeFiles/HandGest.dir/home/anonxx/pico/pico-sdk/src/rp2_common/pico_divider/divider.S.obj
 .debug_abbrev  0x00000000000037c2       0x12 CMakeFiles/HandGest.dir/home/anonxx/pico/pico-sdk/src/rp2_common/pico_double/double_aeabi.S.obj
 .debug_abbrev  0x00000000000037d4      0x2af CMakeFiles/HandGest.dir/home/anonxx/pico/pico-sdk/src/rp2_common/pico_double/double_init_rom.c.obj
 .debug_abbrev  0x0000000000003a83       0x12 CMakeFiles/HandGest.dir/home/anonxx/pico/pico-sdk/src/rp2_common/pico_double/double_v1_rom_shim.S.obj
 .debug_abbrev  0x0000000000003a95       0x14 CMakeFiles/HandGest.dir/home/anonxx/pico/pico-sdk/src/rp2_common/pico_int64_ops/pico_int64_ops_aeabi.S.obj
 .debug_abbrev  0x0000000000003aa9       0x12 CMakeFiles/HandGest.dir/home/anonxx/pico/pico-sdk/src/rp2_common/pico_float/float_aeabi.S.obj
 .debug_abbrev  0x0000000000003abb      0x2c2 CMakeFiles/HandGest.dir/home/anonxx/pico/pico-sdk/src/rp2_common/pico_float/float_init_rom.c.obj
 .debug_abbrev  0x0000000000003d7d       0x12 CMakeFiles/HandGest.dir/home/anonxx/pico/pico-sdk/src/rp2_common/pico_float/float_v1_rom_shim.S.obj
 .debug_abbrev  0x0000000000003d8f       0x12 CMakeFiles/HandGest.dir/home/anonxx/pico/pico-sdk/src/rp2_common/pico_mem_ops/mem_ops_aeabi.S.obj
 .debug_abbrev  0x0000000000003da1       0x12 CMakeFiles/HandGest.dir/home/anonxx/pico/pico-sdk/src/rp2_common/pico_standard_link/crt0.S.obj
 .debug_abbrev  0x0000000000003db3       0xad CMakeFiles/HandGest.dir/home/anonxx/pico/pico-sdk/src/rp2_common/pico_standard_link/binary_info.c.obj
 .debug_abbrev  0x0000000000003e60      0x583 CMakeFiles/HandGest.dir/home/anonxx/pico/pico-sdk/src/rp2_common/pico_stdio/stdio.c.obj
 .debug_abbrev  0x00000000000043e3      0x3a6 CMakeFiles/HandGest.dir/home/anonxx/pico/pico-sdk/src/rp2_common/pico_stdio_uart/stdio_uart.c.obj
 .debug_abbrev  0x0000000000004789      0x3cc CMakeFiles/HandGest.dir/home/anonxx/pico/pico-sdk/src/rp2_common/pico_stdio_usb/reset_interface.c.obj
 .debug_abbrev  0x0000000000004b55      0x4bc CMakeFiles/HandGest.dir/home/anonxx/pico/pico-sdk/src/rp2_common/pico_stdio_usb/stdio_usb.c.obj
 .debug_abbrev  0x0000000000005011      0x24d CMakeFiles/HandGest.dir/home/anonxx/pico/pico-sdk/src/rp2_common/pico_stdio_usb/stdio_usb_descriptors.c.obj
 .debug_abbrev  0x000000000000525e      0x4b9 CMakeFiles/HandGest.dir/home/anonxx/pico/pico-sdk/lib/tinyusb/src/portable/raspberrypi/rp2040/dcd_rp2040.c.obj
 .debug_abbrev  0x0000000000005717      0x40e CMakeFiles/HandGest.dir/home/anonxx/pico/pico-sdk/lib/tinyusb/src/portable/raspberrypi/rp2040/rp2040_usb.c.obj
 .debug_abbrev  0x0000000000005b25      0x5f2 CMakeFiles/HandGest.dir/home/anonxx/pico/pico-sdk/lib/tinyusb/src/device/usbd.c.obj
 .debug_abbrev  0x0000000000006117      0x3d7 CMakeFiles/HandGest.dir/home/anonxx/pico/pico-sdk/lib/tinyusb/src/device/usbd_control.c.obj
 .debug_abbrev  0x00000000000064ee      0x508 CMakeFiles/HandGest.dir/home/anonxx/pico/pico-sdk/lib/tinyusb/src/class/cdc/cdc_device.c.obj
 .debug_abbrev  0x00000000000069f6      0x347 CMakeFiles/HandGest.dir/home/anonxx/pico/pico-sdk/lib/tinyusb/src/tusb.c.obj
 .debug_abbrev  0x0000000000006d3d      0x46e CMakeFiles/HandGest.dir/home/anonxx/pico/pico-sdk/lib/tinyusb/src/common/tusb_fifo.c.obj
 .debug_abbrev  0x00000000000071ab       0x14 /usr/lib/gcc/arm-none-eabi/9.2.1/thumb/v6-m/nofp/libgcc.a(_dvmd_tls.o)
 .debug_abbrev  0x00000000000071bf      0x1e8 /usr/lib/gcc/arm-none-eabi/9.2.1/../../../arm-none-eabi/lib/thumb/v6-m/nofp/libg.a(lib_a-strlen-stub.o)

.debug_aranges  0x0000000000000000     0x1260
 .debug_aranges
                0x0000000000000000       0x20 CMakeFiles/HandGest.dir/HandGest.c.obj
 .debug_aranges
                0x0000000000000020       0xa0 CMakeFiles/HandGest.dir/home/anonxx/pico/pico-sdk/src/rp2_common/hardware_gpio/gpio.c.obj
 .debug_aranges
                0x00000000000000c0       0x48 CMakeFiles/HandGest.dir/home/anonxx/pico/pico-sdk/src/rp2_common/hardware_claim/claim.c.obj
 .debug_aranges
                0x0000000000000108       0x50 CMakeFiles/HandGest.dir/home/anonxx/pico/pico-sdk/src/rp2_common/hardware_sync/sync.c.obj
 .debug_aranges
                0x0000000000000158       0x28 CMakeFiles/HandGest.dir/home/anonxx/pico/pico-sdk/src/rp2_common/pico_platform/platform.c.obj
 .debug_aranges
                0x0000000000000180       0x40 CMakeFiles/HandGest.dir/home/anonxx/pico/pico-sdk/src/rp2_common/hardware_uart/uart.c.obj
 .debug_aranges
                0x00000000000001c0       0xd0 CMakeFiles/HandGest.dir/home/anonxx/pico/pico-sdk/src/common/pico_time/time.c.obj
 .debug_aranges
                0x0000000000000290       0x68 CMakeFiles/HandGest.dir/home/anonxx/pico/pico-sdk/src/rp2_common/hardware_timer/timer.c.obj
 .debug_aranges
                0x00000000000002f8       0x20 CMakeFiles/HandGest.dir/home/anonxx/pico/pico-sdk/src/common/pico_sync/lock_core.c.obj
 .debug_aranges
                0x0000000000000318       0x48 CMakeFiles/HandGest.dir/home/anonxx/pico/pico-sdk/src/common/pico_sync/mutex.c.obj
 .debug_aranges
                0x0000000000000360       0x30 CMakeFiles/HandGest.dir/home/anonxx/pico/pico-sdk/src/common/pico_sync/critical_section.c.obj
 .debug_aranges
                0x0000000000000390       0x78 CMakeFiles/HandGest.dir/home/anonxx/pico/pico-sdk/src/common/pico_util/pheap.c.obj
 .debug_aranges
                0x0000000000000408       0x60 CMakeFiles/HandGest.dir/home/anonxx/pico/pico-sdk/src/rp2_common/pico_runtime/runtime.c.obj
 .debug_aranges
                0x0000000000000468       0x70 CMakeFiles/HandGest.dir/home/anonxx/pico/pico-sdk/src/rp2_common/hardware_clocks/clocks.c.obj
 .debug_aranges
                0x00000000000004d8       0x50 CMakeFiles/HandGest.dir/home/anonxx/pico/pico-sdk/src/rp2_common/hardware_watchdog/watchdog.c.obj
 .debug_aranges
                0x0000000000000528       0x30 CMakeFiles/HandGest.dir/home/anonxx/pico/pico-sdk/src/rp2_common/hardware_xosc/xosc.c.obj
 .debug_aranges
                0x0000000000000558       0x28 CMakeFiles/HandGest.dir/home/anonxx/pico/pico-sdk/src/rp2_common/hardware_pll/pll.c.obj
 .debug_aranges
                0x0000000000000580       0x90 CMakeFiles/HandGest.dir/home/anonxx/pico/pico-sdk/src/rp2_common/hardware_irq/irq.c.obj
 .debug_aranges
                0x0000000000000610       0x20 CMakeFiles/HandGest.dir/home/anonxx/pico/pico-sdk/src/rp2_common/hardware_irq/irq_handler_chain.S.obj
 .debug_aranges
                0x0000000000000630       0x90 CMakeFiles/HandGest.dir/home/anonxx/pico/pico-sdk/src/rp2_common/pico_printf/printf.c.obj
 .debug_aranges
                0x00000000000006c0       0x68 CMakeFiles/HandGest.dir/home/anonxx/pico/pico-sdk/src/rp2_common/pico_bit_ops/bit_ops_aeabi.S.obj
 .debug_aranges
                0x0000000000000728       0x30 CMakeFiles/HandGest.dir/home/anonxx/pico/pico-sdk/src/rp2_common/pico_bootrom/bootrom.c.obj
 .debug_aranges
                0x0000000000000758       0x40 CMakeFiles/HandGest.dir/home/anonxx/pico/pico-sdk/src/rp2_common/pico_divider/divider.S.obj
 .debug_aranges
                0x0000000000000798      0x140 CMakeFiles/HandGest.dir/home/anonxx/pico/pico-sdk/src/rp2_common/pico_double/double_aeabi.S.obj
 .debug_aranges
                0x00000000000008d8       0x20 CMakeFiles/HandGest.dir/home/anonxx/pico/pico-sdk/src/rp2_common/pico_double/double_init_rom.c.obj
 .debug_aranges
                0x00000000000008f8       0xc8 CMakeFiles/HandGest.dir/home/anonxx/pico/pico-sdk/src/rp2_common/pico_double/double_v1_rom_shim.S.obj
 .debug_aranges
                0x00000000000009c0       0x20 CMakeFiles/HandGest.dir/home/anonxx/pico/pico-sdk/src/rp2_common/pico_int64_ops/pico_int64_ops_aeabi.S.obj
 .debug_aranges
                0x00000000000009e0      0x130 CMakeFiles/HandGest.dir/home/anonxx/pico/pico-sdk/src/rp2_common/pico_float/float_aeabi.S.obj
 .debug_aranges
                0x0000000000000b10       0x20 CMakeFiles/HandGest.dir/home/anonxx/pico/pico-sdk/src/rp2_common/pico_float/float_init_rom.c.obj
 .debug_aranges
                0x0000000000000b30       0x50 CMakeFiles/HandGest.dir/home/anonxx/pico/pico-sdk/src/rp2_common/pico_float/float_v1_rom_shim.S.obj
 .debug_aranges
                0x0000000000000b80       0x38 CMakeFiles/HandGest.dir/home/anonxx/pico/pico-sdk/src/rp2_common/pico_mem_ops/mem_ops_aeabi.S.obj
 .debug_aranges
                0x0000000000000bb8       0x28 CMakeFiles/HandGest.dir/home/anonxx/pico/pico-sdk/src/rp2_common/pico_standard_link/crt0.S.obj
 .debug_aranges
                0x0000000000000be0       0x18 CMakeFiles/HandGest.dir/home/anonxx/pico/pico-sdk/src/rp2_common/pico_standard_link/binary_info.c.obj
 .debug_aranges
                0x0000000000000bf8       0xb8 CMakeFiles/HandGest.dir/home/anonxx/pico/pico-sdk/src/rp2_common/pico_stdio/stdio.c.obj
 .debug_aranges
                0x0000000000000cb0       0x48 CMakeFiles/HandGest.dir/home/anonxx/pico/pico-sdk/src/rp2_common/pico_stdio_uart/stdio_uart.c.obj
 .debug_aranges
                0x0000000000000cf8       0x58 CMakeFiles/HandGest.dir/home/anonxx/pico/pico-sdk/src/rp2_common/pico_stdio_usb/reset_interface.c.obj
 .debug_aranges
                0x0000000000000d50       0x40 CMakeFiles/HandGest.dir/home/anonxx/pico/pico-sdk/src/rp2_common/pico_stdio_usb/stdio_usb.c.obj
 .debug_aranges
                0x0000000000000d90       0x30 CMakeFiles/HandGest.dir/home/anonxx/pico/pico-sdk/src/rp2_common/pico_stdio_usb/stdio_usb_descriptors.c.obj
 .debug_aranges
                0x0000000000000dc0       0xe8 CMakeFiles/HandGest.dir/home/anonxx/pico/pico-sdk/lib/tinyusb/src/portable/raspberrypi/rp2040/dcd_rp2040.c.obj
 .debug_aranges
                0x0000000000000ea8       0x58 CMakeFiles/HandGest.dir/home/anonxx/pico/pico-sdk/lib/tinyusb/src/portable/raspberrypi/rp2040/rp2040_usb.c.obj
 .debug_aranges
                0x0000000000000f00      0x110 CMakeFiles/HandGest.dir/home/anonxx/pico/pico-sdk/lib/tinyusb/src/device/usbd.c.obj
 .debug_aranges
                0x0000000000001010       0x50 CMakeFiles/HandGest.dir/home/anonxx/pico/pico-sdk/lib/tinyusb/src/device/usbd_control.c.obj
 .debug_aranges
                0x0000000000001060       0xa8 CMakeFiles/HandGest.dir/home/anonxx/pico/pico-sdk/lib/tinyusb/src/class/cdc/cdc_device.c.obj
 .debug_aranges
                0x0000000000001108       0x38 CMakeFiles/HandGest.dir/home/anonxx/pico/pico-sdk/lib/tinyusb/src/tusb.c.obj
 .debug_aranges
                0x0000000000001140       0xe0 CMakeFiles/HandGest.dir/home/anonxx/pico/pico-sdk/lib/tinyusb/src/common/tusb_fifo.c.obj
 .debug_aranges
                0x0000000000001220       0x20 /usr/lib/gcc/arm-none-eabi/9.2.1/thumb/v6-m/nofp/libgcc.a(_dvmd_tls.o)
 .debug_aranges
                0x0000000000001240       0x20 /usr/lib/gcc/arm-none-eabi/9.2.1/../../../arm-none-eabi/lib/thumb/v6-m/nofp/libg.a(lib_a-strlen-stub.o)

.debug_ranges   0x0000000000000000     0x3570
 .debug_ranges  0x0000000000000000       0x10 CMakeFiles/HandGest.dir/HandGest.c.obj
 .debug_ranges  0x0000000000000010       0xa8 CMakeFiles/HandGest.dir/home/anonxx/pico/pico-sdk/src/rp2_common/hardware_gpio/gpio.c.obj
 .debug_ranges  0x00000000000000b8       0xd8 CMakeFiles/HandGest.dir/home/anonxx/pico/pico-sdk/src/rp2_common/hardware_claim/claim.c.obj
 .debug_ranges  0x0000000000000190       0xb8 CMakeFiles/HandGest.dir/home/anonxx/pico/pico-sdk/src/rp2_common/hardware_sync/sync.c.obj
 .debug_ranges  0x0000000000000248       0x18 CMakeFiles/HandGest.dir/home/anonxx/pico/pico-sdk/src/rp2_common/pico_platform/platform.c.obj
 .debug_ranges  0x0000000000000260       0xf8 CMakeFiles/HandGest.dir/home/anonxx/pico/pico-sdk/src/rp2_common/hardware_uart/uart.c.obj
 .debug_ranges  0x0000000000000358      0xa50 CMakeFiles/HandGest.dir/home/anonxx/pico/pico-sdk/src/common/pico_time/time.c.obj
 .debug_ranges  0x0000000000000da8      0x310 CMakeFiles/HandGest.dir/home/anonxx/pico/pico-sdk/src/rp2_common/hardware_timer/timer.c.obj
 .debug_ranges  0x00000000000010b8       0x10 CMakeFiles/HandGest.dir/home/anonxx/pico/pico-sdk/src/common/pico_sync/lock_core.c.obj
 .debug_ranges  0x00000000000010c8      0x3b8 CMakeFiles/HandGest.dir/home/anonxx/pico/pico-sdk/src/common/pico_sync/mutex.c.obj
 .debug_ranges  0x0000000000001480       0x38 CMakeFiles/HandGest.dir/home/anonxx/pico/pico-sdk/src/common/pico_sync/critical_section.c.obj
 .debug_ranges  0x00000000000014b8      0x230 CMakeFiles/HandGest.dir/home/anonxx/pico/pico-sdk/src/common/pico_util/pheap.c.obj
 .debug_ranges  0x00000000000016e8       0x68 CMakeFiles/HandGest.dir/home/anonxx/pico/pico-sdk/src/rp2_common/pico_runtime/runtime.c.obj
 .debug_ranges  0x0000000000001750       0x78 CMakeFiles/HandGest.dir/home/anonxx/pico/pico-sdk/src/rp2_common/hardware_clocks/clocks.c.obj
 .debug_ranges  0x00000000000017c8       0x40 CMakeFiles/HandGest.dir/home/anonxx/pico/pico-sdk/src/rp2_common/hardware_watchdog/watchdog.c.obj
 .debug_ranges  0x0000000000001808       0x20 CMakeFiles/HandGest.dir/home/anonxx/pico/pico-sdk/src/rp2_common/hardware_xosc/xosc.c.obj
 .debug_ranges  0x0000000000001828       0x18 CMakeFiles/HandGest.dir/home/anonxx/pico/pico-sdk/src/rp2_common/hardware_pll/pll.c.obj
 .debug_ranges  0x0000000000001840      0x3b0 CMakeFiles/HandGest.dir/home/anonxx/pico/pico-sdk/src/rp2_common/hardware_irq/irq.c.obj
 .debug_ranges  0x0000000000001bf0      0x120 CMakeFiles/HandGest.dir/home/anonxx/pico/pico-sdk/src/rp2_common/pico_printf/printf.c.obj
 .debug_ranges  0x0000000000001d10       0x60 CMakeFiles/HandGest.dir/home/anonxx/pico/pico-sdk/src/rp2_common/pico_bit_ops/bit_ops_aeabi.S.obj
 .debug_ranges  0x0000000000001d70       0x38 CMakeFiles/HandGest.dir/home/anonxx/pico/pico-sdk/src/rp2_common/pico_bootrom/bootrom.c.obj
 .debug_ranges  0x0000000000001da8       0x38 CMakeFiles/HandGest.dir/home/anonxx/pico/pico-sdk/src/rp2_common/pico_divider/divider.S.obj
 .debug_ranges  0x0000000000001de0      0x138 CMakeFiles/HandGest.dir/home/anonxx/pico/pico-sdk/src/rp2_common/pico_double/double_aeabi.S.obj
 .debug_ranges  0x0000000000001f18       0x30 CMakeFiles/HandGest.dir/home/anonxx/pico/pico-sdk/src/rp2_common/pico_double/double_init_rom.c.obj
 .debug_ranges  0x0000000000001f48       0xc0 CMakeFiles/HandGest.dir/home/anonxx/pico/pico-sdk/src/rp2_common/pico_double/double_v1_rom_shim.S.obj
 .debug_ranges  0x0000000000002008      0x128 CMakeFiles/HandGest.dir/home/anonxx/pico/pico-sdk/src/rp2_common/pico_float/float_aeabi.S.obj
 .debug_ranges  0x0000000000002130       0x28 CMakeFiles/HandGest.dir/home/anonxx/pico/pico-sdk/src/rp2_common/pico_float/float_init_rom.c.obj
 .debug_ranges  0x0000000000002158       0x48 CMakeFiles/HandGest.dir/home/anonxx/pico/pico-sdk/src/rp2_common/pico_float/float_v1_rom_shim.S.obj
 .debug_ranges  0x00000000000021a0       0x30 CMakeFiles/HandGest.dir/home/anonxx/pico/pico-sdk/src/rp2_common/pico_mem_ops/mem_ops_aeabi.S.obj
 .debug_ranges  0x00000000000021d0       0x20 CMakeFiles/HandGest.dir/home/anonxx/pico/pico-sdk/src/rp2_common/pico_standard_link/crt0.S.obj
 .debug_ranges  0x00000000000021f0      0x198 CMakeFiles/HandGest.dir/home/anonxx/pico/pico-sdk/src/rp2_common/pico_stdio/stdio.c.obj
 .debug_ranges  0x0000000000002388      0x2a0 CMakeFiles/HandGest.dir/home/anonxx/pico/pico-sdk/src/rp2_common/pico_stdio_uart/stdio_uart.c.obj
 .debug_ranges  0x0000000000002628       0x90 CMakeFiles/HandGest.dir/home/anonxx/pico/pico-sdk/src/rp2_common/pico_stdio_usb/reset_interface.c.obj
 .debug_ranges  0x00000000000026b8       0xd8 CMakeFiles/HandGest.dir/home/anonxx/pico/pico-sdk/src/rp2_common/pico_stdio_usb/stdio_usb.c.obj
 .debug_ranges  0x0000000000002790       0x20 CMakeFiles/HandGest.dir/home/anonxx/pico/pico-sdk/src/rp2_common/pico_stdio_usb/stdio_usb_descriptors.c.obj
 .debug_ranges  0x00000000000027b0      0x108 CMakeFiles/HandGest.dir/home/anonxx/pico/pico-sdk/lib/tinyusb/src/portable/raspberrypi/rp2040/dcd_rp2040.c.obj
 .debug_ranges  0x00000000000028b8       0x60 CMakeFiles/HandGest.dir/home/anonxx/pico/pico-sdk/lib/tinyusb/src/portable/raspberrypi/rp2040/rp2040_usb.c.obj
 .debug_ranges  0x0000000000002918      0x968 CMakeFiles/HandGest.dir/home/anonxx/pico/pico-sdk/lib/tinyusb/src/device/usbd.c.obj
 .debug_ranges  0x0000000000003280       0x88 CMakeFiles/HandGest.dir/home/anonxx/pico/pico-sdk/lib/tinyusb/src/device/usbd_control.c.obj
 .debug_ranges  0x0000000000003308      0x110 CMakeFiles/HandGest.dir/home/anonxx/pico/pico-sdk/lib/tinyusb/src/class/cdc/cdc_device.c.obj
 .debug_ranges  0x0000000000003418       0x88 CMakeFiles/HandGest.dir/home/anonxx/pico/pico-sdk/lib/tinyusb/src/tusb.c.obj
 .debug_ranges  0x00000000000034a0       0xd0 CMakeFiles/HandGest.dir/home/anonxx/pico/pico-sdk/lib/tinyusb/src/common/tusb_fifo.c.obj

.debug_line     0x0000000000000000    0x12ba0
 .debug_line    0x0000000000000000      0x2b1 CMakeFiles/HandGest.dir/HandGest.c.obj
 .debug_line    0x00000000000002b1      0x825 CMakeFiles/HandGest.dir/home/anonxx/pico/pico-sdk/src/rp2_common/hardware_gpio/gpio.c.obj
 .debug_line    0x0000000000000ad6      0x3da CMakeFiles/HandGest.dir/home/anonxx/pico/pico-sdk/src/rp2_common/hardware_claim/claim.c.obj
 .debug_line    0x0000000000000eb0      0x36c CMakeFiles/HandGest.dir/home/anonxx/pico/pico-sdk/src/rp2_common/hardware_sync/sync.c.obj
 .debug_line    0x000000000000121c      0x1e1 CMakeFiles/HandGest.dir/home/anonxx/pico/pico-sdk/src/rp2_common/pico_platform/platform.c.obj
 .debug_line    0x00000000000013fd      0x695 CMakeFiles/HandGest.dir/home/anonxx/pico/pico-sdk/src/rp2_common/hardware_uart/uart.c.obj
 .debug_line    0x0000000000001a92     0x1763 CMakeFiles/HandGest.dir/home/anonxx/pico/pico-sdk/src/common/pico_time/time.c.obj
 .debug_line    0x00000000000031f5      0x9de CMakeFiles/HandGest.dir/home/anonxx/pico/pico-sdk/src/rp2_common/hardware_timer/timer.c.obj
 .debug_line    0x0000000000003bd3      0x1a7 CMakeFiles/HandGest.dir/home/anonxx/pico/pico-sdk/src/common/pico_sync/lock_core.c.obj
 .debug_line    0x0000000000003d7a      0x753 CMakeFiles/HandGest.dir/home/anonxx/pico/pico-sdk/src/common/pico_sync/mutex.c.obj
 .debug_line    0x00000000000044cd      0x220 CMakeFiles/HandGest.dir/home/anonxx/pico/pico-sdk/src/common/pico_sync/critical_section.c.obj
 .debug_line    0x00000000000046ed      0x877 CMakeFiles/HandGest.dir/home/anonxx/pico/pico-sdk/src/common/pico_util/pheap.c.obj
 .debug_line    0x0000000000004f64      0x7e3 CMakeFiles/HandGest.dir/home/anonxx/pico/pico-sdk/src/rp2_common/pico_runtime/runtime.c.obj
 .debug_line    0x0000000000005747      0x9be CMakeFiles/HandGest.dir/home/anonxx/pico/pico-sdk/src/rp2_common/hardware_clocks/clocks.c.obj
 .debug_line    0x0000000000006105      0x3ac CMakeFiles/HandGest.dir/home/anonxx/pico/pico-sdk/src/rp2_common/hardware_watchdog/watchdog.c.obj
 .debug_line    0x00000000000064b1      0x235 CMakeFiles/HandGest.dir/home/anonxx/pico/pico-sdk/src/rp2_common/hardware_xosc/xosc.c.obj
 .debug_line    0x00000000000066e6      0x357 CMakeFiles/HandGest.dir/home/anonxx/pico/pico-sdk/src/rp2_common/hardware_pll/pll.c.obj
 .debug_line    0x0000000000006a3d      0xd83 CMakeFiles/HandGest.dir/home/anonxx/pico/pico-sdk/src/rp2_common/hardware_irq/irq.c.obj
 .debug_line    0x00000000000077c0       0x84 CMakeFiles/HandGest.dir/home/anonxx/pico/pico-sdk/src/rp2_common/hardware_irq/irq_handler_chain.S.obj
 .debug_line    0x0000000000007844     0x1170 CMakeFiles/HandGest.dir/home/anonxx/pico/pico-sdk/src/rp2_common/pico_printf/printf.c.obj
 .debug_line    0x00000000000089b4      0x147 CMakeFiles/HandGest.dir/home/anonxx/pico/pico-sdk/src/rp2_common/pico_bit_ops/bit_ops_aeabi.S.obj
 .debug_line    0x0000000000008afb      0x15b CMakeFiles/HandGest.dir/home/anonxx/pico/pico-sdk/src/rp2_common/pico_bootrom/bootrom.c.obj
 .debug_line    0x0000000000008c56      0x2c8 CMakeFiles/HandGest.dir/home/anonxx/pico/pico-sdk/src/rp2_common/pico_divider/divider.S.obj
 .debug_line    0x0000000000008f1e      0x401 CMakeFiles/HandGest.dir/home/anonxx/pico/pico-sdk/src/rp2_common/pico_double/double_aeabi.S.obj
 .debug_line    0x000000000000931f      0x2ef CMakeFiles/HandGest.dir/home/anonxx/pico/pico-sdk/src/rp2_common/pico_double/double_init_rom.c.obj
 .debug_line    0x000000000000960e      0x69b CMakeFiles/HandGest.dir/home/anonxx/pico/pico-sdk/src/rp2_common/pico_double/double_v1_rom_shim.S.obj
 .debug_line    0x0000000000009ca9       0x97 CMakeFiles/HandGest.dir/home/anonxx/pico/pico-sdk/src/rp2_common/pico_int64_ops/pico_int64_ops_aeabi.S.obj
 .debug_line    0x0000000000009d40      0x3c1 CMakeFiles/HandGest.dir/home/anonxx/pico/pico-sdk/src/rp2_common/pico_float/float_aeabi.S.obj
 .debug_line    0x000000000000a101      0x2e9 CMakeFiles/HandGest.dir/home/anonxx/pico/pico-sdk/src/rp2_common/pico_float/float_init_rom.c.obj
 .debug_line    0x000000000000a3ea      0x1c7 CMakeFiles/HandGest.dir/home/anonxx/pico/pico-sdk/src/rp2_common/pico_float/float_v1_rom_shim.S.obj
 .debug_line    0x000000000000a5b1       0xc1 CMakeFiles/HandGest.dir/home/anonxx/pico/pico-sdk/src/rp2_common/pico_mem_ops/mem_ops_aeabi.S.obj
 .debug_line    0x000000000000a672       0xd2 CMakeFiles/HandGest.dir/home/anonxx/pico/pico-sdk/src/rp2_common/pico_standard_link/crt0.S.obj
 .debug_line    0x000000000000a744      0x147 CMakeFiles/HandGest.dir/home/anonxx/pico/pico-sdk/src/rp2_common/pico_standard_link/binary_info.c.obj
 .debug_line    0x000000000000a88b      0xc62 CMakeFiles/HandGest.dir/home/anonxx/pico/pico-sdk/src/rp2_common/pico_stdio/stdio.c.obj
 .debug_line    0x000000000000b4ed      0x776 CMakeFiles/HandGest.dir/home/anonxx/pico/pico-sdk/src/rp2_common/pico_stdio_uart/stdio_uart.c.obj
 .debug_line    0x000000000000bc63      0x573 CMakeFiles/HandGest.dir/home/anonxx/pico/pico-sdk/src/rp2_common/pico_stdio_usb/reset_interface.c.obj
 .debug_line    0x000000000000c1d6      0x868 CMakeFiles/HandGest.dir/home/anonxx/pico/pico-sdk/src/rp2_common/pico_stdio_usb/stdio_usb.c.obj
 .debug_line    0x000000000000ca3e      0x388 CMakeFiles/HandGest.dir/home/anonxx/pico/pico-sdk/src/rp2_common/pico_stdio_usb/stdio_usb_descriptors.c.obj
 .debug_line    0x000000000000cdc6      0xccb CMakeFiles/HandGest.dir/home/anonxx/pico/pico-sdk/lib/tinyusb/src/portable/raspberrypi/rp2040/dcd_rp2040.c.obj
 .debug_line    0x000000000000da91      0x7a8 CMakeFiles/HandGest.dir/home/anonxx/pico/pico-sdk/lib/tinyusb/src/portable/raspberrypi/rp2040/rp2040_usb.c.obj
 .debug_line    0x000000000000e239     0x20e2 CMakeFiles/HandGest.dir/home/anonxx/pico/pico-sdk/lib/tinyusb/src/device/usbd.c.obj
 .debug_line    0x000000000001031b      0x672 CMakeFiles/HandGest.dir/home/anonxx/pico/pico-sdk/lib/tinyusb/src/device/usbd_control.c.obj
 .debug_line    0x000000000001098d      0xf30 CMakeFiles/HandGest.dir/home/anonxx/pico/pico-sdk/lib/tinyusb/src/class/cdc/cdc_device.c.obj
 .debug_line    0x00000000000118bd      0x526 CMakeFiles/HandGest.dir/home/anonxx/pico/pico-sdk/lib/tinyusb/src/tusb.c.obj
 .debug_line    0x0000000000011de3      0xb9b CMakeFiles/HandGest.dir/home/anonxx/pico/pico-sdk/lib/tinyusb/src/common/tusb_fifo.c.obj
 .debug_line    0x000000000001297e       0x60 /usr/lib/gcc/arm-none-eabi/9.2.1/thumb/v6-m/nofp/libgcc.a(_dvmd_tls.o)
 .debug_line    0x00000000000129de      0x1c2 /usr/lib/gcc/arm-none-eabi/9.2.1/../../../arm-none-eabi/lib/thumb/v6-m/nofp/libg.a(lib_a-strlen-stub.o)

.debug_str      0x0000000000000000     0x655f
 .debug_str     0x0000000000000000      0x574 CMakeFiles/HandGest.dir/HandGest.c.obj
                                        0x61b (size before relaxing)
 .debug_str     0x0000000000000574      0x59c CMakeFiles/HandGest.dir/home/anonxx/pico/pico-sdk/src/rp2_common/hardware_gpio/gpio.c.obj
                                        0x7ae (size before relaxing)
 .debug_str     0x0000000000000b10      0x1ca CMakeFiles/HandGest.dir/home/anonxx/pico/pico-sdk/src/rp2_common/hardware_claim/claim.c.obj
                                        0x377 (size before relaxing)
 .debug_str     0x0000000000000cda       0xd7 CMakeFiles/HandGest.dir/home/anonxx/pico/pico-sdk/src/rp2_common/hardware_sync/sync.c.obj
                                        0x33b (size before relaxing)
 .debug_str     0x0000000000000db1       0x81 CMakeFiles/HandGest.dir/home/anonxx/pico/pico-sdk/src/rp2_common/pico_platform/platform.c.obj
                                        0x233 (size before relaxing)
 .debug_str     0x0000000000000e32      0x2e7 CMakeFiles/HandGest.dir/home/anonxx/pico/pico-sdk/src/rp2_common/hardware_uart/uart.c.obj
                                        0x53b (size before relaxing)
 .debug_str     0x0000000000001119      0x6c4 CMakeFiles/HandGest.dir/home/anonxx/pico/pico-sdk/src/common/pico_time/time.c.obj
                                        0xf59 (size before relaxing)
 .debug_str     0x00000000000017dd      0x152 CMakeFiles/HandGest.dir/home/anonxx/pico/pico-sdk/src/rp2_common/hardware_timer/timer.c.obj
                                        0x640 (size before relaxing)
 .debug_str     0x000000000000192f       0x5c CMakeFiles/HandGest.dir/home/anonxx/pico/pico-sdk/src/common/pico_sync/lock_core.c.obj
                                        0x218 (size before relaxing)
 .debug_str     0x000000000000198b       0xdd CMakeFiles/HandGest.dir/home/anonxx/pico/pico-sdk/src/common/pico_sync/mutex.c.obj
                                        0x49a (size before relaxing)
 .debug_str     0x0000000000001a68       0xd3 CMakeFiles/HandGest.dir/home/anonxx/pico/pico-sdk/src/common/pico_sync/critical_section.c.obj
                                        0x2e9 (size before relaxing)
 .debug_str     0x0000000000001b3b       0xec CMakeFiles/HandGest.dir/home/anonxx/pico/pico-sdk/src/common/pico_util/pheap.c.obj
                                        0x7fb (size before relaxing)
 .debug_str     0x0000000000001c27      0x216 CMakeFiles/HandGest.dir/home/anonxx/pico/pico-sdk/src/rp2_common/pico_runtime/runtime.c.obj
                                        0xa13 (size before relaxing)
 .debug_str     0x0000000000001e3d      0x233 CMakeFiles/HandGest.dir/home/anonxx/pico/pico-sdk/src/rp2_common/hardware_clocks/clocks.c.obj
                                        0x68a (size before relaxing)
 .debug_str     0x0000000000002070      0x111 CMakeFiles/HandGest.dir/home/anonxx/pico/pico-sdk/src/rp2_common/hardware_watchdog/watchdog.c.obj
                                        0x70b (size before relaxing)
 .debug_str     0x0000000000002181       0x83 CMakeFiles/HandGest.dir/home/anonxx/pico/pico-sdk/src/rp2_common/hardware_xosc/xosc.c.obj
                                        0x250 (size before relaxing)
 .debug_str     0x0000000000002204       0x85 CMakeFiles/HandGest.dir/home/anonxx/pico/pico-sdk/src/rp2_common/hardware_pll/pll.c.obj
                                        0x278 (size before relaxing)
 .debug_str     0x0000000000002289      0x2c9 CMakeFiles/HandGest.dir/home/anonxx/pico/pico-sdk/src/rp2_common/hardware_irq/irq.c.obj
                                        0x6a1 (size before relaxing)
 .debug_str     0x0000000000002552       0x57 CMakeFiles/HandGest.dir/home/anonxx/pico/pico-sdk/src/rp2_common/hardware_irq/irq_handler_chain.S.obj
                                         0x79 (size before relaxing)
 .debug_str     0x00000000000025a9      0x197 CMakeFiles/HandGest.dir/home/anonxx/pico/pico-sdk/src/rp2_common/pico_printf/printf.c.obj
                                        0x770 (size before relaxing)
 .debug_str     0x0000000000002740       0x47 CMakeFiles/HandGest.dir/home/anonxx/pico/pico-sdk/src/rp2_common/pico_bit_ops/bit_ops_aeabi.S.obj
                                         0x75 (size before relaxing)
 .debug_str     0x0000000000002787       0xad CMakeFiles/HandGest.dir/home/anonxx/pico/pico-sdk/src/rp2_common/pico_bootrom/bootrom.c.obj
                                        0x249 (size before relaxing)
 .debug_str     0x0000000000002834       0x41 CMakeFiles/HandGest.dir/home/anonxx/pico/pico-sdk/src/rp2_common/pico_divider/divider.S.obj
                                         0x6f (size before relaxing)
 .debug_str     0x0000000000002875       0x45 CMakeFiles/HandGest.dir/home/anonxx/pico/pico-sdk/src/rp2_common/pico_double/double_aeabi.S.obj
                                         0x73 (size before relaxing)
 .debug_str     0x00000000000028ba       0x91 CMakeFiles/HandGest.dir/home/anonxx/pico/pico-sdk/src/rp2_common/pico_double/double_init_rom.c.obj
                                        0x658 (size before relaxing)
 .debug_str     0x000000000000294b       0x4b CMakeFiles/HandGest.dir/home/anonxx/pico/pico-sdk/src/rp2_common/pico_double/double_v1_rom_shim.S.obj
                                         0x79 (size before relaxing)
 .debug_str     0x0000000000002996       0x50 CMakeFiles/HandGest.dir/home/anonxx/pico/pico-sdk/src/rp2_common/pico_int64_ops/pico_int64_ops_aeabi.S.obj
                                         0x7e (size before relaxing)
 .debug_str     0x00000000000029e6       0x43 CMakeFiles/HandGest.dir/home/anonxx/pico/pico-sdk/src/rp2_common/pico_float/float_aeabi.S.obj
                                         0x71 (size before relaxing)
 .debug_str     0x0000000000002a29       0x8d CMakeFiles/HandGest.dir/home/anonxx/pico/pico-sdk/src/rp2_common/pico_float/float_init_rom.c.obj
                                        0x690 (size before relaxing)
 .debug_str     0x0000000000002ab6       0x49 CMakeFiles/HandGest.dir/home/anonxx/pico/pico-sdk/src/rp2_common/pico_float/float_v1_rom_shim.S.obj
                                         0x77 (size before relaxing)
 .debug_str     0x0000000000002aff       0x47 CMakeFiles/HandGest.dir/home/anonxx/pico/pico-sdk/src/rp2_common/pico_mem_ops/mem_ops_aeabi.S.obj
                                         0x75 (size before relaxing)
 .debug_str     0x0000000000002b46       0x44 CMakeFiles/HandGest.dir/home/anonxx/pico/pico-sdk/src/rp2_common/pico_standard_link/crt0.S.obj
                                         0x72 (size before relaxing)
 .debug_str     0x0000000000002b8a      0x261 CMakeFiles/HandGest.dir/home/anonxx/pico/pico-sdk/src/rp2_common/pico_standard_link/binary_info.c.obj
                                        0x419 (size before relaxing)
 .debug_str     0x0000000000002deb      0x2b7 CMakeFiles/HandGest.dir/home/anonxx/pico/pico-sdk/src/rp2_common/pico_stdio/stdio.c.obj
                                        0xb3e (size before relaxing)
 .debug_str     0x00000000000030a2      0x2ab CMakeFiles/HandGest.dir/home/anonxx/pico/pico-sdk/src/rp2_common/pico_stdio_uart/stdio_uart.c.obj
                                        0x6f4 (size before relaxing)
 .debug_str     0x000000000000334d      0x62c CMakeFiles/HandGest.dir/home/anonxx/pico/pico-sdk/src/rp2_common/pico_stdio_usb/reset_interface.c.obj
                                        0xcc3 (size before relaxing)
 .debug_str     0x0000000000003979      0x207 CMakeFiles/HandGest.dir/home/anonxx/pico/pico-sdk/src/rp2_common/pico_stdio_usb/stdio_usb.c.obj
                                        0xc2f (size before relaxing)
 .debug_str     0x0000000000003b80      0xa78 CMakeFiles/HandGest.dir/home/anonxx/pico/pico-sdk/src/rp2_common/pico_stdio_usb/stdio_usb_descriptors.c.obj
                                       0x138f (size before relaxing)
 .debug_str     0x00000000000045f8      0x8cd CMakeFiles/HandGest.dir/home/anonxx/pico/pico-sdk/lib/tinyusb/src/portable/raspberrypi/rp2040/dcd_rp2040.c.obj
                                       0x1266 (size before relaxing)
 .debug_str     0x0000000000004ec5      0x15b CMakeFiles/HandGest.dir/home/anonxx/pico/pico-sdk/lib/tinyusb/src/portable/raspberrypi/rp2040/rp2040_usb.c.obj
                                        0xcb4 (size before relaxing)
 .debug_str     0x0000000000005020      0x95d CMakeFiles/HandGest.dir/home/anonxx/pico/pico-sdk/lib/tinyusb/src/device/usbd.c.obj
                                       0x1b75 (size before relaxing)
 .debug_str     0x000000000000597d       0xdd CMakeFiles/HandGest.dir/home/anonxx/pico/pico-sdk/lib/tinyusb/src/device/usbd_control.c.obj
                                        0xa3c (size before relaxing)
 .debug_str     0x0000000000005a5a      0x6fe CMakeFiles/HandGest.dir/home/anonxx/pico/pico-sdk/lib/tinyusb/src/class/cdc/cdc_device.c.obj
                                       0x1b2a (size before relaxing)
 .debug_str     0x0000000000006158       0x84 CMakeFiles/HandGest.dir/home/anonxx/pico/pico-sdk/lib/tinyusb/src/tusb.c.obj
                                        0x821 (size before relaxing)
 .debug_str     0x00000000000061dc      0x1b2 CMakeFiles/HandGest.dir/home/anonxx/pico/pico-sdk/lib/tinyusb/src/common/tusb_fifo.c.obj
                                        0x9be (size before relaxing)
 .debug_str     0x000000000000638e       0x97 /usr/lib/gcc/arm-none-eabi/9.2.1/thumb/v6-m/nofp/libgcc.a(_dvmd_tls.o)
                                         0xa3 (size before relaxing)
 .debug_str     0x0000000000006425      0x13a /usr/lib/gcc/arm-none-eabi/9.2.1/../../../arm-none-eabi/lib/thumb/v6-m/nofp/libg.a(lib_a-strlen-stub.o)
                                        0x5c2 (size before relaxing)

.debug_frame    0x0000000000000000     0x2290
 .debug_frame   0x0000000000000000       0x28 CMakeFiles/HandGest.dir/HandGest.c.obj
 .debug_frame   0x0000000000000028      0x178 CMakeFiles/HandGest.dir/home/anonxx/pico/pico-sdk/src/rp2_common/hardware_gpio/gpio.c.obj
 .debug_frame   0x00000000000001a0       0xa8 CMakeFiles/HandGest.dir/home/anonxx/pico/pico-sdk/src/rp2_common/hardware_claim/claim.c.obj
 .debug_frame   0x0000000000000248       0xac CMakeFiles/HandGest.dir/home/anonxx/pico/pico-sdk/src/rp2_common/hardware_sync/sync.c.obj
 .debug_frame   0x00000000000002f4       0x38 CMakeFiles/HandGest.dir/home/anonxx/pico/pico-sdk/src/rp2_common/pico_platform/platform.c.obj
 .debug_frame   0x000000000000032c       0x78 CMakeFiles/HandGest.dir/home/anonxx/pico/pico-sdk/src/rp2_common/hardware_uart/uart.c.obj
 .debug_frame   0x00000000000003a4      0x294 CMakeFiles/HandGest.dir/home/anonxx/pico/pico-sdk/src/common/pico_time/time.c.obj
 .debug_frame   0x0000000000000638      0x10c CMakeFiles/HandGest.dir/home/anonxx/pico/pico-sdk/src/rp2_common/hardware_timer/timer.c.obj
 .debug_frame   0x0000000000000744       0x20 CMakeFiles/HandGest.dir/home/anonxx/pico/pico-sdk/src/common/pico_sync/lock_core.c.obj
 .debug_frame   0x0000000000000764       0xb8 CMakeFiles/HandGest.dir/home/anonxx/pico/pico-sdk/src/common/pico_sync/mutex.c.obj
 .debug_frame   0x000000000000081c       0x58 CMakeFiles/HandGest.dir/home/anonxx/pico/pico-sdk/src/common/pico_sync/critical_section.c.obj
 .debug_frame   0x0000000000000874      0x164 CMakeFiles/HandGest.dir/home/anonxx/pico/pico-sdk/src/common/pico_util/pheap.c.obj
 .debug_frame   0x00000000000009d8       0xdc CMakeFiles/HandGest.dir/home/anonxx/pico/pico-sdk/src/rp2_common/pico_runtime/runtime.c.obj
 .debug_frame   0x0000000000000ab4      0x128 CMakeFiles/HandGest.dir/home/anonxx/pico/pico-sdk/src/rp2_common/hardware_clocks/clocks.c.obj
 .debug_frame   0x0000000000000bdc       0x98 CMakeFiles/HandGest.dir/home/anonxx/pico/pico-sdk/src/rp2_common/hardware_watchdog/watchdog.c.obj
 .debug_frame   0x0000000000000c74       0x40 CMakeFiles/HandGest.dir/home/anonxx/pico/pico-sdk/src/rp2_common/hardware_xosc/xosc.c.obj
 .debug_frame   0x0000000000000cb4       0x48 CMakeFiles/HandGest.dir/home/anonxx/pico/pico-sdk/src/rp2_common/hardware_pll/pll.c.obj
 .debug_frame   0x0000000000000cfc      0x180 CMakeFiles/HandGest.dir/home/anonxx/pico/pico-sdk/src/rp2_common/hardware_irq/irq.c.obj
 .debug_frame   0x0000000000000e7c      0x1f8 CMakeFiles/HandGest.dir/home/anonxx/pico/pico-sdk/src/rp2_common/pico_printf/printf.c.obj
 .debug_frame   0x0000000000001074       0x64 CMakeFiles/HandGest.dir/home/anonxx/pico/pico-sdk/src/rp2_common/pico_bootrom/bootrom.c.obj
 .debug_frame   0x00000000000010d8       0x2c CMakeFiles/HandGest.dir/home/anonxx/pico/pico-sdk/src/rp2_common/pico_double/double_init_rom.c.obj
 .debug_frame   0x0000000000001104       0x2c CMakeFiles/HandGest.dir/home/anonxx/pico/pico-sdk/src/rp2_common/pico_float/float_init_rom.c.obj
 .debug_frame   0x0000000000001130      0x21c CMakeFiles/HandGest.dir/home/anonxx/pico/pico-sdk/src/rp2_common/pico_stdio/stdio.c.obj
 .debug_frame   0x000000000000134c       0xb4 CMakeFiles/HandGest.dir/home/anonxx/pico/pico-sdk/src/rp2_common/pico_stdio_uart/stdio_uart.c.obj
 .debug_frame   0x0000000000001400       0xa4 CMakeFiles/HandGest.dir/home/anonxx/pico/pico-sdk/src/rp2_common/pico_stdio_usb/reset_interface.c.obj
 .debug_frame   0x00000000000014a4       0xa4 CMakeFiles/HandGest.dir/home/anonxx/pico/pico-sdk/src/rp2_common/pico_stdio_usb/stdio_usb.c.obj
 .debug_frame   0x0000000000001548       0x48 CMakeFiles/HandGest.dir/home/anonxx/pico/pico-sdk/src/rp2_common/pico_stdio_usb/stdio_usb_descriptors.c.obj
 .debug_frame   0x0000000000001590      0x294 CMakeFiles/HandGest.dir/home/anonxx/pico/pico-sdk/lib/tinyusb/src/portable/raspberrypi/rp2040/dcd_rp2040.c.obj
 .debug_frame   0x0000000000001824       0xd8 CMakeFiles/HandGest.dir/home/anonxx/pico/pico-sdk/lib/tinyusb/src/portable/raspberrypi/rp2040/rp2040_usb.c.obj
 .debug_frame   0x00000000000018fc      0x364 CMakeFiles/HandGest.dir/home/anonxx/pico/pico-sdk/lib/tinyusb/src/device/usbd.c.obj
 .debug_frame   0x0000000000001c60       0xcc CMakeFiles/HandGest.dir/home/anonxx/pico/pico-sdk/lib/tinyusb/src/device/usbd_control.c.obj
 .debug_frame   0x0000000000001d2c      0x200 CMakeFiles/HandGest.dir/home/anonxx/pico/pico-sdk/lib/tinyusb/src/class/cdc/cdc_device.c.obj
 .debug_frame   0x0000000000001f2c       0x80 CMakeFiles/HandGest.dir/home/anonxx/pico/pico-sdk/lib/tinyusb/src/tusb.c.obj
 .debug_frame   0x0000000000001fac      0x2bc CMakeFiles/HandGest.dir/home/anonxx/pico/pico-sdk/lib/tinyusb/src/common/tusb_fifo.c.obj
 .debug_frame   0x0000000000002268       0x28 /usr/lib/gcc/arm-none-eabi/9.2.1/../../../arm-none-eabi/lib/thumb/v6-m/nofp/libg.a(lib_a-strlen-stub.o)

.debug_loc      0x0000000000000000    0x12c47
 .debug_loc     0x0000000000000000      0xafe CMakeFiles/HandGest.dir/home/anonxx/pico/pico-sdk/src/rp2_common/hardware_gpio/gpio.c.obj
 .debug_loc     0x0000000000000afe      0x44a CMakeFiles/HandGest.dir/home/anonxx/pico/pico-sdk/src/rp2_common/hardware_claim/claim.c.obj
 .debug_loc     0x0000000000000f48      0x1d7 CMakeFiles/HandGest.dir/home/anonxx/pico/pico-sdk/src/rp2_common/hardware_sync/sync.c.obj
 .debug_loc     0x000000000000111f       0xe9 CMakeFiles/HandGest.dir/home/anonxx/pico/pico-sdk/src/rp2_common/pico_platform/platform.c.obj
 .debug_loc     0x0000000000001208      0x51e CMakeFiles/HandGest.dir/home/anonxx/pico/pico-sdk/src/rp2_common/hardware_uart/uart.c.obj
 .debug_loc     0x0000000000001726     0x2c89 CMakeFiles/HandGest.dir/home/anonxx/pico/pico-sdk/src/common/pico_time/time.c.obj
 .debug_loc     0x00000000000043af      0x8de CMakeFiles/HandGest.dir/home/anonxx/pico/pico-sdk/src/rp2_common/hardware_timer/timer.c.obj
 .debug_loc     0x0000000000004c8d       0x60 CMakeFiles/HandGest.dir/home/anonxx/pico/pico-sdk/src/common/pico_sync/lock_core.c.obj
 .debug_loc     0x0000000000004ced      0x6fb CMakeFiles/HandGest.dir/home/anonxx/pico/pico-sdk/src/common/pico_sync/mutex.c.obj
 .debug_loc     0x00000000000053e8       0xc9 CMakeFiles/HandGest.dir/home/anonxx/pico/pico-sdk/src/common/pico_sync/critical_section.c.obj
 .debug_loc     0x00000000000054b1     0x1412 CMakeFiles/HandGest.dir/home/anonxx/pico/pico-sdk/src/common/pico_util/pheap.c.obj
 .debug_loc     0x00000000000068c3      0x3c2 CMakeFiles/HandGest.dir/home/anonxx/pico/pico-sdk/src/rp2_common/pico_runtime/runtime.c.obj
 .debug_loc     0x0000000000006c85      0x890 CMakeFiles/HandGest.dir/home/anonxx/pico/pico-sdk/src/rp2_common/hardware_clocks/clocks.c.obj
 .debug_loc     0x0000000000007515      0x267 CMakeFiles/HandGest.dir/home/anonxx/pico/pico-sdk/src/rp2_common/hardware_watchdog/watchdog.c.obj
 .debug_loc     0x000000000000777c       0x71 CMakeFiles/HandGest.dir/home/anonxx/pico/pico-sdk/src/rp2_common/hardware_xosc/xosc.c.obj
 .debug_loc     0x00000000000077ed      0x22d CMakeFiles/HandGest.dir/home/anonxx/pico/pico-sdk/src/rp2_common/hardware_pll/pll.c.obj
 .debug_loc     0x0000000000007a1a     0x11a8 CMakeFiles/HandGest.dir/home/anonxx/pico/pico-sdk/src/rp2_common/hardware_irq/irq.c.obj
 .debug_loc     0x0000000000008bc2     0x210c CMakeFiles/HandGest.dir/home/anonxx/pico/pico-sdk/src/rp2_common/pico_printf/printf.c.obj
 .debug_loc     0x000000000000acce      0x16f CMakeFiles/HandGest.dir/home/anonxx/pico/pico-sdk/src/rp2_common/pico_bootrom/bootrom.c.obj
 .debug_loc     0x000000000000ae3d       0x59 CMakeFiles/HandGest.dir/home/anonxx/pico/pico-sdk/src/rp2_common/pico_double/double_init_rom.c.obj
 .debug_loc     0x000000000000ae96       0x73 CMakeFiles/HandGest.dir/home/anonxx/pico/pico-sdk/src/rp2_common/pico_float/float_init_rom.c.obj
 .debug_loc     0x000000000000af09      0xa11 CMakeFiles/HandGest.dir/home/anonxx/pico/pico-sdk/src/rp2_common/pico_stdio/stdio.c.obj
 .debug_loc     0x000000000000b91a      0x4ec CMakeFiles/HandGest.dir/home/anonxx/pico/pico-sdk/src/rp2_common/pico_stdio_uart/stdio_uart.c.obj
 .debug_loc     0x000000000000be06      0x34c CMakeFiles/HandGest.dir/home/anonxx/pico/pico-sdk/src/rp2_common/pico_stdio_usb/reset_interface.c.obj
 .debug_loc     0x000000000000c152      0x558 CMakeFiles/HandGest.dir/home/anonxx/pico/pico-sdk/src/rp2_common/pico_stdio_usb/stdio_usb.c.obj
 .debug_loc     0x000000000000c6aa      0x133 CMakeFiles/HandGest.dir/home/anonxx/pico/pico-sdk/src/rp2_common/pico_stdio_usb/stdio_usb_descriptors.c.obj
 .debug_loc     0x000000000000c7dd      0xdea CMakeFiles/HandGest.dir/home/anonxx/pico/pico-sdk/lib/tinyusb/src/portable/raspberrypi/rp2040/dcd_rp2040.c.obj
 .debug_loc     0x000000000000d5c7      0x583 CMakeFiles/HandGest.dir/home/anonxx/pico/pico-sdk/lib/tinyusb/src/portable/raspberrypi/rp2040/rp2040_usb.c.obj
 .debug_loc     0x000000000000db4a     0x2322 CMakeFiles/HandGest.dir/home/anonxx/pico/pico-sdk/lib/tinyusb/src/device/usbd.c.obj
 .debug_loc     0x000000000000fe6c      0x5c9 CMakeFiles/HandGest.dir/home/anonxx/pico/pico-sdk/lib/tinyusb/src/device/usbd_control.c.obj
 .debug_loc     0x0000000000010435      0xfae CMakeFiles/HandGest.dir/home/anonxx/pico/pico-sdk/lib/tinyusb/src/class/cdc/cdc_device.c.obj
 .debug_loc     0x00000000000113e3      0x2f1 CMakeFiles/HandGest.dir/home/anonxx/pico/pico-sdk/lib/tinyusb/src/tusb.c.obj
 .debug_loc     0x00000000000116d4     0x14d0 CMakeFiles/HandGest.dir/home/anonxx/pico/pico-sdk/lib/tinyusb/src/common/tusb_fifo.c.obj
 .debug_loc     0x0000000000012ba4       0xa3 /usr/lib/gcc/arm-none-eabi/9.2.1/../../../arm-none-eabi/lib/thumb/v6-m/nofp/libg.a(lib_a-strlen-stub.o)
